
accumulator.riscv：     文件格式 elf32-littleriscv


Disassembly of section .text.init:

80000000 <_start>:
80000000:	00000093          	li	ra,0
80000004:	00000113          	li	sp,0
80000008:	00000193          	li	gp,0
8000000c:	00000213          	li	tp,0
80000010:	00000293          	li	t0,0
80000014:	00000313          	li	t1,0
80000018:	00000393          	li	t2,0
8000001c:	00000413          	li	s0,0
80000020:	00000493          	li	s1,0
80000024:	00000513          	li	a0,0
80000028:	00000593          	li	a1,0
8000002c:	00000613          	li	a2,0
80000030:	00000693          	li	a3,0
80000034:	00000713          	li	a4,0
80000038:	00000793          	li	a5,0
8000003c:	00000813          	li	a6,0
80000040:	00000893          	li	a7,0
80000044:	00000913          	li	s2,0
80000048:	00000993          	li	s3,0
8000004c:	00000a13          	li	s4,0
80000050:	00000a93          	li	s5,0
80000054:	00000b13          	li	s6,0
80000058:	00000b93          	li	s7,0
8000005c:	00000c13          	li	s8,0
80000060:	00000c93          	li	s9,0
80000064:	00000d13          	li	s10,0
80000068:	00000d93          	li	s11,0
8000006c:	00000e13          	li	t3,0
80000070:	00000e93          	li	t4,0
80000074:	00000f13          	li	t5,0
80000078:	00000f93          	li	t6,0
8000007c:	0001e2b7          	lui	t0,0x1e
80000080:	3002a073          	csrs	mstatus,t0
80000084:	00100293          	li	t0,1
80000088:	01f29293          	slli	t0,t0,0x1f
8000008c:	0002ca63          	bltz	t0,800000a0 <_start+0xa0>
80000090:	00100513          	li	a0,1
80000094:	00001297          	auipc	t0,0x1
80000098:	f6a2a623          	sw	a0,-148(t0) # 80001000 <tohost>
8000009c:	ff5ff06f          	j	80000090 <_start+0x90>
800000a0:	00000297          	auipc	t0,0x0
800000a4:	04028293          	addi	t0,t0,64 # 800000e0 <trap_entry>
800000a8:	30529073          	csrw	mtvec,t0
800000ac:	00003197          	auipc	gp,0x3
800000b0:	2a418193          	addi	gp,gp,676 # 80003350 <__global_pointer$>
800000b4:	86f18213          	addi	tp,gp,-1937 # 80002bbf <_end+0x3f>
800000b8:	fc027213          	andi	tp,tp,-64
800000bc:	f1402573          	csrr	a0,mhartid
800000c0:	00100593          	li	a1,1
800000c4:	00b57063          	bleu	a1,a0,800000c4 <_start+0xc4>
800000c8:	00150113          	addi	sp,a0,1
800000cc:	01111113          	slli	sp,sp,0x11
800000d0:	00410133          	add	sp,sp,tp
800000d4:	01151613          	slli	a2,a0,0x11
800000d8:	00c20233          	add	tp,tp,a2
800000dc:	0810106f          	j	8000195c <_init>

800000e0 <trap_entry>:
800000e0:	ef010113          	addi	sp,sp,-272
800000e4:	00112223          	sw	ra,4(sp)
800000e8:	00212423          	sw	sp,8(sp)
800000ec:	00312623          	sw	gp,12(sp)
800000f0:	00412823          	sw	tp,16(sp)
800000f4:	00512a23          	sw	t0,20(sp)
800000f8:	00612c23          	sw	t1,24(sp)
800000fc:	00712e23          	sw	t2,28(sp)
80000100:	02812023          	sw	s0,32(sp)
80000104:	02912223          	sw	s1,36(sp)
80000108:	02a12423          	sw	a0,40(sp)
8000010c:	02b12623          	sw	a1,44(sp)
80000110:	02c12823          	sw	a2,48(sp)
80000114:	02d12a23          	sw	a3,52(sp)
80000118:	02e12c23          	sw	a4,56(sp)
8000011c:	02f12e23          	sw	a5,60(sp)
80000120:	05012023          	sw	a6,64(sp)
80000124:	05112223          	sw	a7,68(sp)
80000128:	05212423          	sw	s2,72(sp)
8000012c:	05312623          	sw	s3,76(sp)
80000130:	05412823          	sw	s4,80(sp)
80000134:	05512a23          	sw	s5,84(sp)
80000138:	05612c23          	sw	s6,88(sp)
8000013c:	05712e23          	sw	s7,92(sp)
80000140:	07812023          	sw	s8,96(sp)
80000144:	07912223          	sw	s9,100(sp)
80000148:	07a12423          	sw	s10,104(sp)
8000014c:	07b12623          	sw	s11,108(sp)
80000150:	07c12823          	sw	t3,112(sp)
80000154:	07d12a23          	sw	t4,116(sp)
80000158:	07e12c23          	sw	t5,120(sp)
8000015c:	07f12e23          	sw	t6,124(sp)
80000160:	34202573          	csrr	a0,mcause
80000164:	341025f3          	csrr	a1,mepc
80000168:	00010613          	mv	a2,sp
8000016c:	58c010ef          	jal	ra,800016f8 <handle_trap>
80000170:	34151073          	csrw	mepc,a0
80000174:	000022b7          	lui	t0,0x2
80000178:	80028293          	addi	t0,t0,-2048 # 1800 <buflen.2800+0x17c0>
8000017c:	3002a073          	csrs	mstatus,t0
80000180:	00412083          	lw	ra,4(sp)
80000184:	00812103          	lw	sp,8(sp)
80000188:	00c12183          	lw	gp,12(sp)
8000018c:	01012203          	lw	tp,16(sp)
80000190:	01412283          	lw	t0,20(sp)
80000194:	01812303          	lw	t1,24(sp)
80000198:	01c12383          	lw	t2,28(sp)
8000019c:	02012403          	lw	s0,32(sp)
800001a0:	02412483          	lw	s1,36(sp)
800001a4:	02812503          	lw	a0,40(sp)
800001a8:	02c12583          	lw	a1,44(sp)
800001ac:	03012603          	lw	a2,48(sp)
800001b0:	03412683          	lw	a3,52(sp)
800001b4:	03812703          	lw	a4,56(sp)
800001b8:	03c12783          	lw	a5,60(sp)
800001bc:	04012803          	lw	a6,64(sp)
800001c0:	04412883          	lw	a7,68(sp)
800001c4:	04812903          	lw	s2,72(sp)
800001c8:	04c12983          	lw	s3,76(sp)
800001cc:	05012a03          	lw	s4,80(sp)
800001d0:	05412a83          	lw	s5,84(sp)
800001d4:	05812b03          	lw	s6,88(sp)
800001d8:	05c12b83          	lw	s7,92(sp)
800001dc:	06012c03          	lw	s8,96(sp)
800001e0:	06412c83          	lw	s9,100(sp)
800001e4:	06812d03          	lw	s10,104(sp)
800001e8:	06c12d83          	lw	s11,108(sp)
800001ec:	07012e03          	lw	t3,112(sp)
800001f0:	07412e83          	lw	t4,116(sp)
800001f4:	07812f03          	lw	t5,120(sp)
800001f8:	07c12f83          	lw	t6,124(sp)
800001fc:	11010113          	addi	sp,sp,272
80000200:	30200073          	mret

Disassembly of section .text:

80001048 <vprintfmt>:
80001048:	eb010113          	addi	sp,sp,-336
8000104c:	13a12023          	sw	s10,288(sp)
80001050:	40000d37          	lui	s10,0x40000
80001054:	fffd0793          	addi	a5,s10,-1 # 3fffffff <buflen.2800+0x3fffffbf>
80001058:	14812423          	sw	s0,328(sp)
8000105c:	14912223          	sw	s1,324(sp)
80001060:	15212023          	sw	s2,320(sp)
80001064:	13512a23          	sw	s5,308(sp)
80001068:	14112623          	sw	ra,332(sp)
8000106c:	13312e23          	sw	s3,316(sp)
80001070:	13412c23          	sw	s4,312(sp)
80001074:	13612823          	sw	s6,304(sp)
80001078:	13712623          	sw	s7,300(sp)
8000107c:	13812423          	sw	s8,296(sp)
80001080:	13912223          	sw	s9,292(sp)
80001084:	11b12e23          	sw	s11,284(sp)
80001088:	00050913          	mv	s2,a0
8000108c:	00058493          	mv	s1,a1
80001090:	00060413          	mv	s0,a2
80001094:	00d12423          	sw	a3,8(sp)
80001098:	02500a93          	li	s5,37
8000109c:	00f12623          	sw	a5,12(sp)
800010a0:	0140006f          	j	800010b4 <vprintfmt+0x6c>
800010a4:	06050463          	beqz	a0,8000110c <vprintfmt+0xc4>
800010a8:	00048593          	mv	a1,s1
800010ac:	00140413          	addi	s0,s0,1
800010b0:	000900e7          	jalr	s2
800010b4:	00044503          	lbu	a0,0(s0)
800010b8:	ff5516e3          	bne	a0,s5,800010a4 <vprintfmt+0x5c>
800010bc:	00144683          	lbu	a3,1(s0)
800010c0:	00140b13          	addi	s6,s0,1
800010c4:	000b0713          	mv	a4,s6
800010c8:	02000b93          	li	s7,32
800010cc:	fff00a13          	li	s4,-1
800010d0:	fff00993          	li	s3,-1
800010d4:	00000593          	li	a1,0
800010d8:	05500513          	li	a0,85
800010dc:	00900813          	li	a6,9
800010e0:	fdd68793          	addi	a5,a3,-35
800010e4:	0ff7f793          	andi	a5,a5,255
800010e8:	00170413          	addi	s0,a4,1
800010ec:	34f56a63          	bltu	a0,a5,80001440 <vprintfmt+0x3f8>
800010f0:	00001617          	auipc	a2,0x1
800010f4:	77860613          	addi	a2,a2,1912 # 80002868 <main+0x3c>
800010f8:	00279793          	slli	a5,a5,0x2
800010fc:	00c787b3          	add	a5,a5,a2
80001100:	0007a783          	lw	a5,0(a5)
80001104:	00c787b3          	add	a5,a5,a2
80001108:	00078067          	jr	a5
8000110c:	14c12083          	lw	ra,332(sp)
80001110:	14812403          	lw	s0,328(sp)
80001114:	14412483          	lw	s1,324(sp)
80001118:	14012903          	lw	s2,320(sp)
8000111c:	13c12983          	lw	s3,316(sp)
80001120:	13812a03          	lw	s4,312(sp)
80001124:	13412a83          	lw	s5,308(sp)
80001128:	13012b03          	lw	s6,304(sp)
8000112c:	12c12b83          	lw	s7,300(sp)
80001130:	12812c03          	lw	s8,296(sp)
80001134:	12412c83          	lw	s9,292(sp)
80001138:	12012d03          	lw	s10,288(sp)
8000113c:	11c12d83          	lw	s11,284(sp)
80001140:	15010113          	addi	sp,sp,336
80001144:	00008067          	ret
80001148:	00800b13          	li	s6,8
8000114c:	00012223          	sw	zero,4(sp)
80001150:	00100793          	li	a5,1
80001154:	26b7d863          	ble	a1,a5,800013c4 <vprintfmt+0x37c>
80001158:	00812783          	lw	a5,8(sp)
8000115c:	00778c93          	addi	s9,a5,7
80001160:	ff8cf793          	andi	a5,s9,-8
80001164:	0007ad83          	lw	s11,0(a5)
80001168:	0047ac03          	lw	s8,4(a5)
8000116c:	00878713          	addi	a4,a5,8
80001170:	00e12423          	sw	a4,8(sp)
80001174:	000b0613          	mv	a2,s6
80001178:	00000693          	li	a3,0
8000117c:	000d8513          	mv	a0,s11
80001180:	000c0593          	mv	a1,s8
80001184:	298010ef          	jal	ra,8000241c <__umoddi3>
80001188:	00a12823          	sw	a0,16(sp)
8000118c:	00000793          	li	a5,0
80001190:	2d878263          	beq	a5,s8,80001454 <vprintfmt+0x40c>
80001194:	01410c93          	addi	s9,sp,20
80001198:	00100a13          	li	s4,1
8000119c:	000b0613          	mv	a2,s6
800011a0:	00000693          	li	a3,0
800011a4:	000d8513          	mv	a0,s11
800011a8:	000c0593          	mv	a1,s8
800011ac:	63d000ef          	jal	ra,80001fe8 <__udivdi3>
800011b0:	000b0613          	mv	a2,s6
800011b4:	00000693          	li	a3,0
800011b8:	00050d93          	mv	s11,a0
800011bc:	00058c13          	mv	s8,a1
800011c0:	25c010ef          	jal	ra,8000241c <__umoddi3>
800011c4:	00412783          	lw	a5,4(sp)
800011c8:	00aca023          	sw	a0,0(s9)
800011cc:	001a0d13          	addi	s10,s4,1
800011d0:	004c8c93          	addi	s9,s9,4
800011d4:	01878663          	beq	a5,s8,800011e0 <vprintfmt+0x198>
800011d8:	000d0a13          	mv	s4,s10
800011dc:	fc1ff06f          	j	8000119c <vprintfmt+0x154>
800011e0:	ff6dfce3          	bleu	s6,s11,800011d8 <vprintfmt+0x190>
800011e4:	013d5c63          	ble	s3,s10,800011fc <vprintfmt+0x1b4>
800011e8:	fff98993          	addi	s3,s3,-1
800011ec:	00048593          	mv	a1,s1
800011f0:	000b8513          	mv	a0,s7
800011f4:	000900e7          	jalr	s2
800011f8:	ff3d48e3          	blt	s10,s3,800011e8 <vprintfmt+0x1a0>
800011fc:	002a1793          	slli	a5,s4,0x2
80001200:	11010713          	addi	a4,sp,272
80001204:	00f707b3          	add	a5,a4,a5
80001208:	f007a503          	lw	a0,-256(a5)
8000120c:	00c12783          	lw	a5,12(sp)
80001210:	00900b13          	li	s6,9
80001214:	00fa09b3          	add	s3,s4,a5
80001218:	00299993          	slli	s3,s3,0x2
8000121c:	01010793          	addi	a5,sp,16
80001220:	013789b3          	add	s3,a5,s3
80001224:	0100006f          	j	80001234 <vprintfmt+0x1ec>
80001228:	0009a503          	lw	a0,0(s3)
8000122c:	fffa0a13          	addi	s4,s4,-1
80001230:	ffc98993          	addi	s3,s3,-4
80001234:	03000793          	li	a5,48
80001238:	00ab7463          	bleu	a0,s6,80001240 <vprintfmt+0x1f8>
8000123c:	05700793          	li	a5,87
80001240:	00048593          	mv	a1,s1
80001244:	00a78533          	add	a0,a5,a0
80001248:	000900e7          	jalr	s2
8000124c:	fd404ee3          	bgtz	s4,80001228 <vprintfmt+0x1e0>
80001250:	e65ff06f          	j	800010b4 <vprintfmt+0x6c>
80001254:	03000513          	li	a0,48
80001258:	00048593          	mv	a1,s1
8000125c:	000900e7          	jalr	s2
80001260:	00048593          	mv	a1,s1
80001264:	07800513          	li	a0,120
80001268:	000900e7          	jalr	s2
8000126c:	00812783          	lw	a5,8(sp)
80001270:	01000b13          	li	s6,16
80001274:	00012223          	sw	zero,4(sp)
80001278:	00478693          	addi	a3,a5,4
8000127c:	00812783          	lw	a5,8(sp)
80001280:	00000c13          	li	s8,0
80001284:	0007ad83          	lw	s11,0(a5)
80001288:	00d12423          	sw	a3,8(sp)
8000128c:	ee9ff06f          	j	80001174 <vprintfmt+0x12c>
80001290:	00812783          	lw	a5,8(sp)
80001294:	00174683          	lbu	a3,1(a4)
80001298:	00040713          	mv	a4,s0
8000129c:	0007aa03          	lw	s4,0(a5)
800012a0:	00478793          	addi	a5,a5,4
800012a4:	00f12423          	sw	a5,8(sp)
800012a8:	e209dce3          	bgez	s3,800010e0 <vprintfmt+0x98>
800012ac:	000a0993          	mv	s3,s4
800012b0:	fff00a13          	li	s4,-1
800012b4:	e2dff06f          	j	800010e0 <vprintfmt+0x98>
800012b8:	00174683          	lbu	a3,1(a4)
800012bc:	02d00b93          	li	s7,45
800012c0:	00040713          	mv	a4,s0
800012c4:	e1dff06f          	j	800010e0 <vprintfmt+0x98>
800012c8:	fff9c793          	not	a5,s3
800012cc:	41f7d793          	srai	a5,a5,0x1f
800012d0:	00174683          	lbu	a3,1(a4)
800012d4:	00f9f9b3          	and	s3,s3,a5
800012d8:	00040713          	mv	a4,s0
800012dc:	e05ff06f          	j	800010e0 <vprintfmt+0x98>
800012e0:	00174683          	lbu	a3,1(a4)
800012e4:	03000b93          	li	s7,48
800012e8:	00040713          	mv	a4,s0
800012ec:	df5ff06f          	j	800010e0 <vprintfmt+0x98>
800012f0:	00174603          	lbu	a2,1(a4)
800012f4:	fd068a13          	addi	s4,a3,-48
800012f8:	00040713          	mv	a4,s0
800012fc:	fd060793          	addi	a5,a2,-48
80001300:	00060693          	mv	a3,a2
80001304:	faf862e3          	bltu	a6,a5,800012a8 <vprintfmt+0x260>
80001308:	002a1793          	slli	a5,s4,0x2
8000130c:	01478a33          	add	s4,a5,s4
80001310:	00170713          	addi	a4,a4,1
80001314:	001a1a13          	slli	s4,s4,0x1
80001318:	00ca0a33          	add	s4,s4,a2
8000131c:	00074603          	lbu	a2,0(a4)
80001320:	fd0a0a13          	addi	s4,s4,-48
80001324:	fd060793          	addi	a5,a2,-48
80001328:	00060693          	mv	a3,a2
8000132c:	fcf87ee3          	bleu	a5,a6,80001308 <vprintfmt+0x2c0>
80001330:	f79ff06f          	j	800012a8 <vprintfmt+0x260>
80001334:	00812783          	lw	a5,8(sp)
80001338:	00048593          	mv	a1,s1
8000133c:	0007a503          	lw	a0,0(a5)
80001340:	00478c93          	addi	s9,a5,4
80001344:	000900e7          	jalr	s2
80001348:	01912423          	sw	s9,8(sp)
8000134c:	d69ff06f          	j	800010b4 <vprintfmt+0x6c>
80001350:	00100793          	li	a5,1
80001354:	1ab7da63          	ble	a1,a5,80001508 <vprintfmt+0x4c0>
80001358:	00812783          	lw	a5,8(sp)
8000135c:	00778793          	addi	a5,a5,7
80001360:	ff87f793          	andi	a5,a5,-8
80001364:	0007ad83          	lw	s11,0(a5)
80001368:	0047ac03          	lw	s8,4(a5)
8000136c:	00878713          	addi	a4,a5,8
80001370:	00e12423          	sw	a4,8(sp)
80001374:	020c5263          	bgez	s8,80001398 <vprintfmt+0x350>
80001378:	00048593          	mv	a1,s1
8000137c:	02d00513          	li	a0,45
80001380:	000900e7          	jalr	s2
80001384:	41b00733          	neg	a4,s11
80001388:	00e036b3          	snez	a3,a4
8000138c:	418007b3          	neg	a5,s8
80001390:	00070d93          	mv	s11,a4
80001394:	40d78c33          	sub	s8,a5,a3
80001398:	00a00b13          	li	s6,10
8000139c:	00012223          	sw	zero,4(sp)
800013a0:	dd5ff06f          	j	80001174 <vprintfmt+0x12c>
800013a4:	00174683          	lbu	a3,1(a4)
800013a8:	00158593          	addi	a1,a1,1
800013ac:	00040713          	mv	a4,s0
800013b0:	d31ff06f          	j	800010e0 <vprintfmt+0x98>
800013b4:	00012223          	sw	zero,4(sp)
800013b8:	00100793          	li	a5,1
800013bc:	00a00b13          	li	s6,10
800013c0:	d8b7cce3          	blt	a5,a1,80001158 <vprintfmt+0x110>
800013c4:	00812783          	lw	a5,8(sp)
800013c8:	00478693          	addi	a3,a5,4
800013cc:	eb1ff06f          	j	8000127c <vprintfmt+0x234>
800013d0:	01000b13          	li	s6,16
800013d4:	00012223          	sw	zero,4(sp)
800013d8:	d79ff06f          	j	80001150 <vprintfmt+0x108>
800013dc:	00174683          	lbu	a3,1(a4)
800013e0:	00040713          	mv	a4,s0
800013e4:	cfdff06f          	j	800010e0 <vprintfmt+0x98>
800013e8:	00048593          	mv	a1,s1
800013ec:	02500513          	li	a0,37
800013f0:	000900e7          	jalr	s2
800013f4:	cc1ff06f          	j	800010b4 <vprintfmt+0x6c>
800013f8:	00812783          	lw	a5,8(sp)
800013fc:	0007ab03          	lw	s6,0(a5)
80001400:	00478c93          	addi	s9,a5,4
80001404:	120b0263          	beqz	s6,80001528 <vprintfmt+0x4e0>
80001408:	07305863          	blez	s3,80001478 <vprintfmt+0x430>
8000140c:	02d00793          	li	a5,45
80001410:	0efb8463          	beq	s7,a5,800014f8 <vprintfmt+0x4b0>
80001414:	0a0a0c63          	beqz	s4,800014cc <vprintfmt+0x484>
80001418:	000b4783          	lbu	a5,0(s6)
8000141c:	0a078863          	beqz	a5,800014cc <vprintfmt+0x484>
80001420:	001b0793          	addi	a5,s6,1
80001424:	014b0633          	add	a2,s6,s4
80001428:	12f60663          	beq	a2,a5,80001554 <vprintfmt+0x50c>
8000142c:	00178713          	addi	a4,a5,1
80001430:	fff74683          	lbu	a3,-1(a4)
80001434:	02068c63          	beqz	a3,8000146c <vprintfmt+0x424>
80001438:	00070793          	mv	a5,a4
8000143c:	fedff06f          	j	80001428 <vprintfmt+0x3e0>
80001440:	00048593          	mv	a1,s1
80001444:	02500513          	li	a0,37
80001448:	000900e7          	jalr	s2
8000144c:	000b0413          	mv	s0,s6
80001450:	c65ff06f          	j	800010b4 <vprintfmt+0x6c>
80001454:	d56df0e3          	bleu	s6,s11,80001194 <vprintfmt+0x14c>
80001458:	00100793          	li	a5,1
8000145c:	00000a13          	li	s4,0
80001460:	00100d13          	li	s10,1
80001464:	d937c2e3          	blt	a5,s3,800011e8 <vprintfmt+0x1a0>
80001468:	da5ff06f          	j	8000120c <vprintfmt+0x1c4>
8000146c:	416787b3          	sub	a5,a5,s6
80001470:	40f989b3          	sub	s3,s3,a5
80001474:	05304c63          	bgtz	s3,800014cc <vprintfmt+0x484>
80001478:	000b4503          	lbu	a0,0(s6)
8000147c:	02050e63          	beqz	a0,800014b8 <vprintfmt+0x470>
80001480:	fff00b93          	li	s7,-1
80001484:	020a5e63          	bgez	s4,800014c0 <vprintfmt+0x478>
80001488:	00048593          	mv	a1,s1
8000148c:	001b0b13          	addi	s6,s6,1
80001490:	000900e7          	jalr	s2
80001494:	000b4503          	lbu	a0,0(s6)
80001498:	fff98993          	addi	s3,s3,-1
8000149c:	fe0514e3          	bnez	a0,80001484 <vprintfmt+0x43c>
800014a0:	01305c63          	blez	s3,800014b8 <vprintfmt+0x470>
800014a4:	fff98993          	addi	s3,s3,-1
800014a8:	00048593          	mv	a1,s1
800014ac:	02000513          	li	a0,32
800014b0:	000900e7          	jalr	s2
800014b4:	fe0998e3          	bnez	s3,800014a4 <vprintfmt+0x45c>
800014b8:	01912423          	sw	s9,8(sp)
800014bc:	bf9ff06f          	j	800010b4 <vprintfmt+0x6c>
800014c0:	fffa0a13          	addi	s4,s4,-1
800014c4:	fd7a12e3          	bne	s4,s7,80001488 <vprintfmt+0x440>
800014c8:	fd9ff06f          	j	800014a0 <vprintfmt+0x458>
800014cc:	fff98993          	addi	s3,s3,-1
800014d0:	00048593          	mv	a1,s1
800014d4:	000b8513          	mv	a0,s7
800014d8:	000900e7          	jalr	s2
800014dc:	f8098ee3          	beqz	s3,80001478 <vprintfmt+0x430>
800014e0:	fff98993          	addi	s3,s3,-1
800014e4:	00048593          	mv	a1,s1
800014e8:	000b8513          	mv	a0,s7
800014ec:	000900e7          	jalr	s2
800014f0:	fc099ee3          	bnez	s3,800014cc <vprintfmt+0x484>
800014f4:	f85ff06f          	j	80001478 <vprintfmt+0x430>
800014f8:	000b4503          	lbu	a0,0(s6)
800014fc:	fa0504e3          	beqz	a0,800014a4 <vprintfmt+0x45c>
80001500:	fff00b93          	li	s7,-1
80001504:	f81ff06f          	j	80001484 <vprintfmt+0x43c>
80001508:	00812703          	lw	a4,8(sp)
8000150c:	00470793          	addi	a5,a4,4
80001510:	00059463          	bnez	a1,80001518 <vprintfmt+0x4d0>
80001514:	00812703          	lw	a4,8(sp)
80001518:	00072d83          	lw	s11,0(a4)
8000151c:	00f12423          	sw	a5,8(sp)
80001520:	41fddc13          	srai	s8,s11,0x1f
80001524:	e51ff06f          	j	80001374 <vprintfmt+0x32c>
80001528:	01305c63          	blez	s3,80001540 <vprintfmt+0x4f8>
8000152c:	02d00793          	li	a5,45
80001530:	00fb8863          	beq	s7,a5,80001540 <vprintfmt+0x4f8>
80001534:	00001b17          	auipc	s6,0x1
80001538:	58cb0b13          	addi	s6,s6,1420 # 80002ac0 <__clz_tab+0x100>
8000153c:	ed9ff06f          	j	80001414 <vprintfmt+0x3cc>
80001540:	00001b17          	auipc	s6,0x1
80001544:	580b0b13          	addi	s6,s6,1408 # 80002ac0 <__clz_tab+0x100>
80001548:	02800513          	li	a0,40
8000154c:	fff00b93          	li	s7,-1
80001550:	f35ff06f          	j	80001484 <vprintfmt+0x43c>
80001554:	41660633          	sub	a2,a2,s6
80001558:	40c989b3          	sub	s3,s3,a2
8000155c:	f73048e3          	bgtz	s3,800014cc <vprintfmt+0x484>
80001560:	f19ff06f          	j	80001478 <vprintfmt+0x430>

80001564 <sprintf_putch.2914>:
80001564:	0005a783          	lw	a5,0(a1)
80001568:	00a78023          	sb	a0,0(a5)
8000156c:	0005a783          	lw	a5,0(a1)
80001570:	00178793          	addi	a5,a5,1
80001574:	00f5a023          	sw	a5,0(a1)
80001578:	00008067          	ret

8000157c <syscall.constprop.2>:
8000157c:	f8010113          	addi	sp,sp,-128
80001580:	03f10813          	addi	a6,sp,63
80001584:	fc087813          	andi	a6,a6,-64
80001588:	04000713          	li	a4,64
8000158c:	00e82023          	sw	a4,0(a6)
80001590:	00000793          	li	a5,0
80001594:	00f82223          	sw	a5,4(a6)
80001598:	00100713          	li	a4,1
8000159c:	00e82423          	sw	a4,8(a6)
800015a0:	00000793          	li	a5,0
800015a4:	00f82623          	sw	a5,12(a6)
800015a8:	00a82823          	sw	a0,16(a6)
800015ac:	00b82a23          	sw	a1,20(a6)
800015b0:	00c82c23          	sw	a2,24(a6)
800015b4:	00d82e23          	sw	a3,28(a6)
800015b8:	0ff0000f          	fence
800015bc:	00000697          	auipc	a3,0x0
800015c0:	a4468693          	addi	a3,a3,-1468 # 80001000 <tohost>
800015c4:	0106a023          	sw	a6,0(a3)
800015c8:	00000793          	li	a5,0
800015cc:	00f6a223          	sw	a5,4(a3)
800015d0:	00000697          	auipc	a3,0x0
800015d4:	a7068693          	addi	a3,a3,-1424 # 80001040 <fromhost>
800015d8:	0006a703          	lw	a4,0(a3)
800015dc:	0046a783          	lw	a5,4(a3)
800015e0:	00f76733          	or	a4,a4,a5
800015e4:	fe070ae3          	beqz	a4,800015d8 <syscall.constprop.2+0x5c>
800015e8:	00000713          	li	a4,0
800015ec:	00e6a023          	sw	a4,0(a3)
800015f0:	00000793          	li	a5,0
800015f4:	00f6a223          	sw	a5,4(a3)
800015f8:	0ff0000f          	fence
800015fc:	00082503          	lw	a0,0(a6)
80001600:	00482583          	lw	a1,4(a6)
80001604:	08010113          	addi	sp,sp,128
80001608:	00008067          	ret

8000160c <putchar>:
8000160c:	ff010113          	addi	sp,sp,-16
80001610:	00812423          	sw	s0,8(sp)
80001614:	04022583          	lw	a1,64(tp) # 40 <buflen.2800>
80001618:	00020793          	mv	a5,tp
8000161c:	00112623          	sw	ra,12(sp)
80001620:	00b787b3          	add	a5,a5,a1
80001624:	00158613          	addi	a2,a1,1
80001628:	00a78023          	sb	a0,0(a5)
8000162c:	04c22023          	sw	a2,64(tp) # 40 <buflen.2800>
80001630:	00a00793          	li	a5,10
80001634:	02f50063          	beq	a0,a5,80001654 <putchar+0x48>
80001638:	04000793          	li	a5,64
8000163c:	00f60c63          	beq	a2,a5,80001654 <putchar+0x48>
80001640:	00c12083          	lw	ra,12(sp)
80001644:	00812403          	lw	s0,8(sp)
80001648:	00000513          	li	a0,0
8000164c:	01010113          	addi	sp,sp,16
80001650:	00008067          	ret
80001654:	41f65693          	srai	a3,a2,0x1f
80001658:	00020513          	mv	a0,tp
8000165c:	00000593          	li	a1,0
80001660:	f1dff0ef          	jal	ra,8000157c <syscall.constprop.2>
80001664:	04022023          	sw	zero,64(tp) # 40 <buflen.2800>
80001668:	00c12083          	lw	ra,12(sp)
8000166c:	00812403          	lw	s0,8(sp)
80001670:	00000513          	li	a0,0
80001674:	01010113          	addi	sp,sp,16
80001678:	00008067          	ret

8000167c <setStats>:
8000167c:	b00027f3          	csrr	a5,mcycle
80001680:	00001717          	auipc	a4,0x1
80001684:	4dc70713          	addi	a4,a4,1244 # 80002b5c <counters>
80001688:	00051e63          	bnez	a0,800016a4 <setStats+0x28>
8000168c:	00072683          	lw	a3,0(a4)
80001690:	00001617          	auipc	a2,0x1
80001694:	43860613          	addi	a2,a2,1080 # 80002ac8 <__clz_tab+0x108>
80001698:	00001597          	auipc	a1,0x1
8000169c:	4ac5ae23          	sw	a2,1212(a1) # 80002b54 <counter_names>
800016a0:	40d787b3          	sub	a5,a5,a3
800016a4:	00001697          	auipc	a3,0x1
800016a8:	4af6ac23          	sw	a5,1208(a3) # 80002b5c <counters>
800016ac:	b02027f3          	csrr	a5,minstret
800016b0:	00051e63          	bnez	a0,800016cc <setStats+0x50>
800016b4:	00472703          	lw	a4,4(a4)
800016b8:	00001697          	auipc	a3,0x1
800016bc:	41868693          	addi	a3,a3,1048 # 80002ad0 <__clz_tab+0x110>
800016c0:	00001617          	auipc	a2,0x1
800016c4:	48d62c23          	sw	a3,1176(a2) # 80002b58 <counter_names+0x4>
800016c8:	40e787b3          	sub	a5,a5,a4
800016cc:	00001717          	auipc	a4,0x1
800016d0:	48f72a23          	sw	a5,1172(a4) # 80002b60 <counters+0x4>
800016d4:	00008067          	ret

800016d8 <tohost_exit>:
800016d8:	00151513          	slli	a0,a0,0x1
800016dc:	00000697          	auipc	a3,0x0
800016e0:	92468693          	addi	a3,a3,-1756 # 80001000 <tohost>
800016e4:	00156713          	ori	a4,a0,1
800016e8:	00000793          	li	a5,0
800016ec:	00e6a023          	sw	a4,0(a3)
800016f0:	00f6a223          	sw	a5,4(a3)
800016f4:	0000006f          	j	800016f4 <tohost_exit+0x1c>

800016f8 <handle_trap>:
800016f8:	00001637          	lui	a2,0x1
800016fc:	00000797          	auipc	a5,0x0
80001700:	90478793          	addi	a5,a5,-1788 # 80001000 <tohost>
80001704:	a7360613          	addi	a2,a2,-1421 # a73 <buflen.2800+0xa33>
80001708:	00000693          	li	a3,0
8000170c:	00c7a023          	sw	a2,0(a5)
80001710:	00d7a223          	sw	a3,4(a5)
80001714:	0000006f          	j	80001714 <handle_trap+0x1c>

80001718 <exit>:
80001718:	ff010113          	addi	sp,sp,-16
8000171c:	00112623          	sw	ra,12(sp)
80001720:	fb9ff0ef          	jal	ra,800016d8 <tohost_exit>

80001724 <abort>:
80001724:	00000797          	auipc	a5,0x0
80001728:	8dc78793          	addi	a5,a5,-1828 # 80001000 <tohost>
8000172c:	10d00613          	li	a2,269
80001730:	00000693          	li	a3,0
80001734:	00c7a023          	sw	a2,0(a5)
80001738:	00d7a223          	sw	a3,4(a5)
8000173c:	0000006f          	j	8000173c <abort+0x18>

80001740 <printstr>:
80001740:	00054783          	lbu	a5,0(a0)
80001744:	00050613          	mv	a2,a0
80001748:	02078063          	beqz	a5,80001768 <printstr+0x28>
8000174c:	00160613          	addi	a2,a2,1
80001750:	00064783          	lbu	a5,0(a2)
80001754:	fe079ce3          	bnez	a5,8000174c <printstr+0xc>
80001758:	40a60633          	sub	a2,a2,a0
8000175c:	00000693          	li	a3,0
80001760:	00000593          	li	a1,0
80001764:	e19ff06f          	j	8000157c <syscall.constprop.2>
80001768:	00000613          	li	a2,0
8000176c:	00000693          	li	a3,0
80001770:	00000593          	li	a1,0
80001774:	e09ff06f          	j	8000157c <syscall.constprop.2>

80001778 <thread_entry>:
80001778:	00050463          	beqz	a0,80001780 <thread_entry+0x8>
8000177c:	0000006f          	j	8000177c <thread_entry+0x4>
80001780:	00008067          	ret

80001784 <printhex>:
80001784:	fd010113          	addi	sp,sp,-48
80001788:	02112623          	sw	ra,44(sp)
8000178c:	01b10793          	addi	a5,sp,27
80001790:	00b10313          	addi	t1,sp,11
80001794:	00900893          	li	a7,9
80001798:	00f57693          	andi	a3,a0,15
8000179c:	01c59813          	slli	a6,a1,0x1c
800017a0:	00455513          	srli	a0,a0,0x4
800017a4:	05700613          	li	a2,87
800017a8:	0ff6f713          	andi	a4,a3,255
800017ac:	00d8e463          	bltu	a7,a3,800017b4 <printhex+0x30>
800017b0:	03000613          	li	a2,48
800017b4:	00c70733          	add	a4,a4,a2
800017b8:	00e78023          	sb	a4,0(a5)
800017bc:	fff78793          	addi	a5,a5,-1
800017c0:	00a86533          	or	a0,a6,a0
800017c4:	0045d593          	srli	a1,a1,0x4
800017c8:	fcf318e3          	bne	t1,a5,80001798 <printhex+0x14>
800017cc:	00c10513          	addi	a0,sp,12
800017d0:	00010e23          	sb	zero,28(sp)
800017d4:	f6dff0ef          	jal	ra,80001740 <printstr>
800017d8:	02c12083          	lw	ra,44(sp)
800017dc:	03010113          	addi	sp,sp,48
800017e0:	00008067          	ret

800017e4 <printf>:
800017e4:	fc010113          	addi	sp,sp,-64
800017e8:	02410313          	addi	t1,sp,36
800017ec:	02b12223          	sw	a1,36(sp)
800017f0:	02c12423          	sw	a2,40(sp)
800017f4:	02d12623          	sw	a3,44(sp)
800017f8:	00050613          	mv	a2,a0
800017fc:	00030693          	mv	a3,t1
80001800:	00000517          	auipc	a0,0x0
80001804:	e0c50513          	addi	a0,a0,-500 # 8000160c <putchar>
80001808:	00000593          	li	a1,0
8000180c:	00112e23          	sw	ra,28(sp)
80001810:	02e12823          	sw	a4,48(sp)
80001814:	02f12a23          	sw	a5,52(sp)
80001818:	03012c23          	sw	a6,56(sp)
8000181c:	03112e23          	sw	a7,60(sp)
80001820:	00612623          	sw	t1,12(sp)
80001824:	825ff0ef          	jal	ra,80001048 <vprintfmt>
80001828:	01c12083          	lw	ra,28(sp)
8000182c:	00000513          	li	a0,0
80001830:	04010113          	addi	sp,sp,64
80001834:	00008067          	ret

80001838 <sprintf>:
80001838:	fb010113          	addi	sp,sp,-80
8000183c:	03810313          	addi	t1,sp,56
80001840:	02812423          	sw	s0,40(sp)
80001844:	00a12623          	sw	a0,12(sp)
80001848:	02c12c23          	sw	a2,56(sp)
8000184c:	02d12e23          	sw	a3,60(sp)
80001850:	00050413          	mv	s0,a0
80001854:	00058613          	mv	a2,a1
80001858:	00000517          	auipc	a0,0x0
8000185c:	d0c50513          	addi	a0,a0,-756 # 80001564 <sprintf_putch.2914>
80001860:	00c10593          	addi	a1,sp,12
80001864:	00030693          	mv	a3,t1
80001868:	02112623          	sw	ra,44(sp)
8000186c:	04f12223          	sw	a5,68(sp)
80001870:	04e12023          	sw	a4,64(sp)
80001874:	05012423          	sw	a6,72(sp)
80001878:	05112623          	sw	a7,76(sp)
8000187c:	00612e23          	sw	t1,28(sp)
80001880:	fc8ff0ef          	jal	ra,80001048 <vprintfmt>
80001884:	00c12783          	lw	a5,12(sp)
80001888:	00078023          	sb	zero,0(a5)
8000188c:	00c12503          	lw	a0,12(sp)
80001890:	02c12083          	lw	ra,44(sp)
80001894:	40850533          	sub	a0,a0,s0
80001898:	02812403          	lw	s0,40(sp)
8000189c:	05010113          	addi	sp,sp,80
800018a0:	00008067          	ret

800018a4 <memcpy>:
800018a4:	00c5e7b3          	or	a5,a1,a2
800018a8:	00f567b3          	or	a5,a0,a5
800018ac:	0037f793          	andi	a5,a5,3
800018b0:	00c506b3          	add	a3,a0,a2
800018b4:	02078463          	beqz	a5,800018dc <memcpy+0x38>
800018b8:	00c58633          	add	a2,a1,a2
800018bc:	00050793          	mv	a5,a0
800018c0:	02d57e63          	bleu	a3,a0,800018fc <memcpy+0x58>
800018c4:	00158593          	addi	a1,a1,1
800018c8:	fff5c703          	lbu	a4,-1(a1)
800018cc:	00178793          	addi	a5,a5,1
800018d0:	fee78fa3          	sb	a4,-1(a5)
800018d4:	feb618e3          	bne	a2,a1,800018c4 <memcpy+0x20>
800018d8:	00008067          	ret
800018dc:	fed57ee3          	bleu	a3,a0,800018d8 <memcpy+0x34>
800018e0:	00050793          	mv	a5,a0
800018e4:	00458593          	addi	a1,a1,4
800018e8:	ffc5a703          	lw	a4,-4(a1)
800018ec:	00478793          	addi	a5,a5,4
800018f0:	fee7ae23          	sw	a4,-4(a5)
800018f4:	fed7e8e3          	bltu	a5,a3,800018e4 <memcpy+0x40>
800018f8:	00008067          	ret
800018fc:	00008067          	ret

80001900 <memset>:
80001900:	00c567b3          	or	a5,a0,a2
80001904:	0037f793          	andi	a5,a5,3
80001908:	00c50633          	add	a2,a0,a2
8000190c:	02078063          	beqz	a5,8000192c <memset+0x2c>
80001910:	0ff5f593          	andi	a1,a1,255
80001914:	00050793          	mv	a5,a0
80001918:	04c57063          	bleu	a2,a0,80001958 <memset+0x58>
8000191c:	00178793          	addi	a5,a5,1
80001920:	feb78fa3          	sb	a1,-1(a5)
80001924:	fef61ce3          	bne	a2,a5,8000191c <memset+0x1c>
80001928:	00008067          	ret
8000192c:	0ff5f593          	andi	a1,a1,255
80001930:	00859713          	slli	a4,a1,0x8
80001934:	00e5e733          	or	a4,a1,a4
80001938:	01071793          	slli	a5,a4,0x10
8000193c:	00f76733          	or	a4,a4,a5
80001940:	fec574e3          	bleu	a2,a0,80001928 <memset+0x28>
80001944:	00050793          	mv	a5,a0
80001948:	00478793          	addi	a5,a5,4
8000194c:	fee7ae23          	sw	a4,-4(a5)
80001950:	fec7ece3          	bltu	a5,a2,80001948 <memset+0x48>
80001954:	00008067          	ret
80001958:	00008067          	ret

8000195c <_init>:
8000195c:	f6010113          	addi	sp,sp,-160
80001960:	00001797          	auipc	a5,0x1
80001964:	20478793          	addi	a5,a5,516 # 80002b64 <_tdata_begin>
80001968:	09212823          	sw	s2,144(sp)
8000196c:	00001917          	auipc	s2,0x1
80001970:	1f890913          	addi	s2,s2,504 # 80002b64 <_tdata_begin>
80001974:	08912a23          	sw	s1,148(sp)
80001978:	40f904b3          	sub	s1,s2,a5
8000197c:	00048613          	mv	a2,s1
80001980:	09312623          	sw	s3,140(sp)
80001984:	09412423          	sw	s4,136(sp)
80001988:	00050993          	mv	s3,a0
8000198c:	00058a13          	mv	s4,a1
80001990:	00020513          	mv	a0,tp
80001994:	00078593          	mv	a1,a5
80001998:	08112e23          	sw	ra,156(sp)
8000199c:	08812c23          	sw	s0,152(sp)
800019a0:	09512223          	sw	s5,132(sp)
800019a4:	00020a93          	mv	s5,tp
800019a8:	efdff0ef          	jal	ra,800018a4 <memcpy>
800019ac:	87418613          	addi	a2,gp,-1932 # 80002bc4 <_tbss_end>
800019b0:	41260633          	sub	a2,a2,s2
800019b4:	00000593          	li	a1,0
800019b8:	009a8533          	add	a0,s5,s1
800019bc:	f45ff0ef          	jal	ra,80001900 <memset>
800019c0:	000a0593          	mv	a1,s4
800019c4:	00098513          	mv	a0,s3
800019c8:	db1ff0ef          	jal	ra,80001778 <thread_entry>
800019cc:	00000593          	li	a1,0
800019d0:	00000513          	li	a0,0
800019d4:	659000ef          	jal	ra,8000282c <main>
800019d8:	00001497          	auipc	s1,0x1
800019dc:	18448493          	addi	s1,s1,388 # 80002b5c <counters>
800019e0:	0004a683          	lw	a3,0(s1)
800019e4:	03f10413          	addi	s0,sp,63
800019e8:	fc047413          	andi	s0,s0,-64
800019ec:	00050913          	mv	s2,a0
800019f0:	04069463          	bnez	a3,80001a38 <_init+0xdc>
800019f4:	0044a683          	lw	a3,4(s1)
800019f8:	00069663          	bnez	a3,80001a04 <_init+0xa8>
800019fc:	00090513          	mv	a0,s2
80001a00:	cd9ff0ef          	jal	ra,800016d8 <tohost_exit>
80001a04:	00040493          	mv	s1,s0
80001a08:	00001997          	auipc	s3,0x1
80001a0c:	14c98993          	addi	s3,s3,332 # 80002b54 <counter_names>
80001a10:	0049a603          	lw	a2,4(s3)
80001a14:	00048513          	mv	a0,s1
80001a18:	00001597          	auipc	a1,0x1
80001a1c:	0dc58593          	addi	a1,a1,220 # 80002af4 <__clz_tab+0x134>
80001a20:	e19ff0ef          	jal	ra,80001838 <sprintf>
80001a24:	00a484b3          	add	s1,s1,a0
80001a28:	fc940ae3          	beq	s0,s1,800019fc <_init+0xa0>
80001a2c:	00040513          	mv	a0,s0
80001a30:	d11ff0ef          	jal	ra,80001740 <printstr>
80001a34:	fc9ff06f          	j	800019fc <_init+0xa0>
80001a38:	00001997          	auipc	s3,0x1
80001a3c:	11c98993          	addi	s3,s3,284 # 80002b54 <counter_names>
80001a40:	0009a603          	lw	a2,0(s3)
80001a44:	00001597          	auipc	a1,0x1
80001a48:	0b058593          	addi	a1,a1,176 # 80002af4 <__clz_tab+0x134>
80001a4c:	00040513          	mv	a0,s0
80001a50:	de9ff0ef          	jal	ra,80001838 <sprintf>
80001a54:	0044a683          	lw	a3,4(s1)
80001a58:	00a404b3          	add	s1,s0,a0
80001a5c:	fc0686e3          	beqz	a3,80001a28 <_init+0xcc>
80001a60:	fb1ff06f          	j	80001a10 <_init+0xb4>

80001a64 <strlen>:
80001a64:	00054783          	lbu	a5,0(a0)
80001a68:	00050713          	mv	a4,a0
80001a6c:	00078c63          	beqz	a5,80001a84 <strlen+0x20>
80001a70:	00150513          	addi	a0,a0,1
80001a74:	00054783          	lbu	a5,0(a0)
80001a78:	fe079ce3          	bnez	a5,80001a70 <strlen+0xc>
80001a7c:	40e50533          	sub	a0,a0,a4
80001a80:	00008067          	ret
80001a84:	00000513          	li	a0,0
80001a88:	00008067          	ret

80001a8c <strnlen>:
80001a8c:	00050713          	mv	a4,a0
80001a90:	02058663          	beqz	a1,80001abc <strnlen+0x30>
80001a94:	00054783          	lbu	a5,0(a0)
80001a98:	02078263          	beqz	a5,80001abc <strnlen+0x30>
80001a9c:	00b505b3          	add	a1,a0,a1
80001aa0:	00c0006f          	j	80001aac <strnlen+0x20>
80001aa4:	00054783          	lbu	a5,0(a0)
80001aa8:	00078663          	beqz	a5,80001ab4 <strnlen+0x28>
80001aac:	00150513          	addi	a0,a0,1
80001ab0:	feb51ae3          	bne	a0,a1,80001aa4 <strnlen+0x18>
80001ab4:	40e50533          	sub	a0,a0,a4
80001ab8:	00008067          	ret
80001abc:	00000513          	li	a0,0
80001ac0:	00008067          	ret

80001ac4 <strcmp>:
80001ac4:	00150513          	addi	a0,a0,1
80001ac8:	fff54783          	lbu	a5,-1(a0)
80001acc:	00158593          	addi	a1,a1,1
80001ad0:	fff5c703          	lbu	a4,-1(a1)
80001ad4:	00078863          	beqz	a5,80001ae4 <strcmp+0x20>
80001ad8:	fee786e3          	beq	a5,a4,80001ac4 <strcmp>
80001adc:	40e78533          	sub	a0,a5,a4
80001ae0:	00008067          	ret
80001ae4:	00000793          	li	a5,0
80001ae8:	ff5ff06f          	j	80001adc <strcmp+0x18>

80001aec <strcpy>:
80001aec:	00050793          	mv	a5,a0
80001af0:	00158593          	addi	a1,a1,1
80001af4:	fff5c703          	lbu	a4,-1(a1)
80001af8:	00178793          	addi	a5,a5,1
80001afc:	fee78fa3          	sb	a4,-1(a5)
80001b00:	fe0718e3          	bnez	a4,80001af0 <strcpy+0x4>
80001b04:	00008067          	ret

80001b08 <atol>:
80001b08:	00054783          	lbu	a5,0(a0)
80001b0c:	02000713          	li	a4,32
80001b10:	00e79863          	bne	a5,a4,80001b20 <atol+0x18>
80001b14:	00150513          	addi	a0,a0,1
80001b18:	00054783          	lbu	a5,0(a0)
80001b1c:	fee78ce3          	beq	a5,a4,80001b14 <atol+0xc>
80001b20:	fd578713          	addi	a4,a5,-43
80001b24:	0fd77713          	andi	a4,a4,253
80001b28:	04070263          	beqz	a4,80001b6c <atol+0x64>
80001b2c:	00054683          	lbu	a3,0(a0)
80001b30:	00050793          	mv	a5,a0
80001b34:	00000613          	li	a2,0
80001b38:	04068863          	beqz	a3,80001b88 <atol+0x80>
80001b3c:	00000513          	li	a0,0
80001b40:	00178793          	addi	a5,a5,1
80001b44:	fd068593          	addi	a1,a3,-48
80001b48:	00251713          	slli	a4,a0,0x2
80001b4c:	0007c683          	lbu	a3,0(a5)
80001b50:	00a70533          	add	a0,a4,a0
80001b54:	00151513          	slli	a0,a0,0x1
80001b58:	00a58533          	add	a0,a1,a0
80001b5c:	fe0692e3          	bnez	a3,80001b40 <atol+0x38>
80001b60:	00060463          	beqz	a2,80001b68 <atol+0x60>
80001b64:	40a00533          	neg	a0,a0
80001b68:	00008067          	ret
80001b6c:	00154683          	lbu	a3,1(a0)
80001b70:	fd378793          	addi	a5,a5,-45
80001b74:	0017b613          	seqz	a2,a5
80001b78:	00150793          	addi	a5,a0,1
80001b7c:	fc0690e3          	bnez	a3,80001b3c <atol+0x34>
80001b80:	00000513          	li	a0,0
80001b84:	fddff06f          	j	80001b60 <atol+0x58>
80001b88:	00000513          	li	a0,0
80001b8c:	00008067          	ret

80001b90 <__moddi3>:

#ifdef L_moddi3
DWtype
__moddi3 (DWtype u, DWtype v)
{
  Wtype c = 0;
80001b90:	00000893          	li	a7,0
  DWunion uu = {.ll = u};
  DWunion vv = {.ll = v};
  DWtype w;

  if (uu.s.high < 0)
80001b94:	0005dc63          	bgez	a1,80001bac <__moddi3+0x1c>
    c = ~c,
    uu.ll = -uu.ll;
80001b98:	40a00533          	neg	a0,a0
80001b9c:	00a037b3          	snez	a5,a0
80001ba0:	40b005b3          	neg	a1,a1
80001ba4:	40f585b3          	sub	a1,a1,a5
    c = ~c,
80001ba8:	fff00893          	li	a7,-1
  if (vv.s.high < 0)
80001bac:	0006da63          	bgez	a3,80001bc0 <__moddi3+0x30>
    vv.ll = -vv.ll;
80001bb0:	40c00633          	neg	a2,a2
80001bb4:	00c037b3          	snez	a5,a2
80001bb8:	40d006b3          	neg	a3,a3
80001bbc:	40f686b3          	sub	a3,a3,a5
  d0 = dd.s.low;
80001bc0:	00060813          	mv	a6,a2
  d1 = dd.s.high;
80001bc4:	00068313          	mv	t1,a3
  n0 = nn.s.low;
80001bc8:	00050793          	mv	a5,a0
  n1 = nn.s.high;
80001bcc:	00058713          	mv	a4,a1
  if (d1 == 0)
80001bd0:	24069863          	bnez	a3,80001e20 <__moddi3+0x290>
80001bd4:	800036b7          	lui	a3,0x80003
80001bd8:	9c068693          	addi	a3,a3,-1600 # 800029c0 <__global_pointer$+0xfffff670>
      if (d0 > n1)
80001bdc:	0ec5f863          	bleu	a2,a1,80001ccc <__moddi3+0x13c>
	  count_leading_zeros (bm, d0);
80001be0:	00010e37          	lui	t3,0x10
80001be4:	0dc67a63          	bleu	t3,a2,80001cb8 <__moddi3+0x128>
80001be8:	0ff00e13          	li	t3,255
80001bec:	00ce7463          	bleu	a2,t3,80001bf4 <__moddi3+0x64>
80001bf0:	00800313          	li	t1,8
80001bf4:	00665e33          	srl	t3,a2,t1
80001bf8:	01c686b3          	add	a3,a3,t3
80001bfc:	0006ce03          	lbu	t3,0(a3)
80001c00:	006e0e33          	add	t3,t3,t1
80001c04:	02000313          	li	t1,32
80001c08:	41c30333          	sub	t1,t1,t3
	  if (bm != 0)
80001c0c:	00030c63          	beqz	t1,80001c24 <__moddi3+0x94>
	      n1 = (n1 << bm) | (n0 >> (W_TYPE_SIZE - bm));
80001c10:	006595b3          	sll	a1,a1,t1
80001c14:	01c55e33          	srl	t3,a0,t3
	      d0 = d0 << bm;
80001c18:	00661833          	sll	a6,a2,t1
	      n1 = (n1 << bm) | (n0 >> (W_TYPE_SIZE - bm));
80001c1c:	00be6733          	or	a4,t3,a1
	      n0 = n0 << bm;
80001c20:	006517b3          	sll	a5,a0,t1
	  udiv_qrnnd (q0, n0, n1, n0, d0);
80001c24:	01085593          	srli	a1,a6,0x10
80001c28:	02b77633          	remu	a2,a4,a1
80001c2c:	01081513          	slli	a0,a6,0x10
80001c30:	01055513          	srli	a0,a0,0x10
80001c34:	0107d693          	srli	a3,a5,0x10
80001c38:	02b75733          	divu	a4,a4,a1
80001c3c:	01061613          	slli	a2,a2,0x10
80001c40:	00d666b3          	or	a3,a2,a3
80001c44:	02e50733          	mul	a4,a0,a4
80001c48:	00e6fa63          	bleu	a4,a3,80001c5c <__moddi3+0xcc>
80001c4c:	010686b3          	add	a3,a3,a6
80001c50:	0106e663          	bltu	a3,a6,80001c5c <__moddi3+0xcc>
80001c54:	00e6f463          	bleu	a4,a3,80001c5c <__moddi3+0xcc>
80001c58:	010686b3          	add	a3,a3,a6
80001c5c:	40e686b3          	sub	a3,a3,a4
80001c60:	02b6f733          	remu	a4,a3,a1
80001c64:	01079793          	slli	a5,a5,0x10
80001c68:	0107d793          	srli	a5,a5,0x10
80001c6c:	02b6d6b3          	divu	a3,a3,a1
80001c70:	02d506b3          	mul	a3,a0,a3
80001c74:	01071513          	slli	a0,a4,0x10
80001c78:	00f567b3          	or	a5,a0,a5
80001c7c:	00d7fa63          	bleu	a3,a5,80001c90 <__moddi3+0x100>
80001c80:	010787b3          	add	a5,a5,a6
80001c84:	0107e663          	bltu	a5,a6,80001c90 <__moddi3+0x100>
80001c88:	00d7f463          	bleu	a3,a5,80001c90 <__moddi3+0x100>
80001c8c:	010787b3          	add	a5,a5,a6
80001c90:	40d787b3          	sub	a5,a5,a3
	  rr.s.low = n0 >> bm;
80001c94:	0067d533          	srl	a0,a5,t1
	  *rp = rr.ll;
80001c98:	00000593          	li	a1,0

  (void) __udivmoddi4 (uu.ll, vv.ll, (UDWtype*)&w);
  if (c)
80001c9c:	00088c63          	beqz	a7,80001cb4 <__moddi3+0x124>
    w = -w;
80001ca0:	40a007b3          	neg	a5,a0
80001ca4:	00f03733          	snez	a4,a5
80001ca8:	40b005b3          	neg	a1,a1
80001cac:	00078513          	mv	a0,a5
80001cb0:	40e585b3          	sub	a1,a1,a4

  return w;
}
80001cb4:	00008067          	ret
	  count_leading_zeros (bm, d0);
80001cb8:	01000e37          	lui	t3,0x1000
80001cbc:	01000313          	li	t1,16
80001cc0:	f3c66ae3          	bltu	a2,t3,80001bf4 <__moddi3+0x64>
80001cc4:	01800313          	li	t1,24
80001cc8:	f2dff06f          	j	80001bf4 <__moddi3+0x64>
	  if (d0 == 0)
80001ccc:	00061663          	bnez	a2,80001cd8 <__moddi3+0x148>
	    d0 = 1 / d0;	/* Divide intentionally by zero.  */
80001cd0:	00100813          	li	a6,1
80001cd4:	02685833          	divu	a6,a6,t1
	  count_leading_zeros (bm, d0);
80001cd8:	00010737          	lui	a4,0x10
80001cdc:	0ae87263          	bleu	a4,a6,80001d80 <__moddi3+0x1f0>
80001ce0:	0ff00713          	li	a4,255
80001ce4:	01077463          	bleu	a6,a4,80001cec <__moddi3+0x15c>
80001ce8:	00800313          	li	t1,8
80001cec:	00685733          	srl	a4,a6,t1
80001cf0:	00e686b3          	add	a3,a3,a4
80001cf4:	0006ce03          	lbu	t3,0(a3)
80001cf8:	006e0e33          	add	t3,t3,t1
80001cfc:	02000313          	li	t1,32
80001d00:	41c30333          	sub	t1,t1,t3
	  if (bm == 0)
80001d04:	08031863          	bnez	t1,80001d94 <__moddi3+0x204>
	      n1 -= d0;
80001d08:	410585b3          	sub	a1,a1,a6
	  udiv_qrnnd (q0, n0, n1, n0, d0);
80001d0c:	01085693          	srli	a3,a6,0x10
80001d10:	01081513          	slli	a0,a6,0x10
80001d14:	01055513          	srli	a0,a0,0x10
80001d18:	0107d613          	srli	a2,a5,0x10
80001d1c:	02d5f733          	remu	a4,a1,a3
80001d20:	02d5d5b3          	divu	a1,a1,a3
80001d24:	01071713          	slli	a4,a4,0x10
80001d28:	00c76733          	or	a4,a4,a2
80001d2c:	02b505b3          	mul	a1,a0,a1
80001d30:	00b77a63          	bleu	a1,a4,80001d44 <__moddi3+0x1b4>
80001d34:	01070733          	add	a4,a4,a6
80001d38:	01076663          	bltu	a4,a6,80001d44 <__moddi3+0x1b4>
80001d3c:	00b77463          	bleu	a1,a4,80001d44 <__moddi3+0x1b4>
80001d40:	01070733          	add	a4,a4,a6
80001d44:	40b705b3          	sub	a1,a4,a1
80001d48:	02d5f733          	remu	a4,a1,a3
80001d4c:	01079793          	slli	a5,a5,0x10
80001d50:	0107d793          	srli	a5,a5,0x10
80001d54:	02d5d5b3          	divu	a1,a1,a3
80001d58:	02b505b3          	mul	a1,a0,a1
80001d5c:	01071513          	slli	a0,a4,0x10
80001d60:	00f567b3          	or	a5,a0,a5
80001d64:	00b7fa63          	bleu	a1,a5,80001d78 <__moddi3+0x1e8>
80001d68:	010787b3          	add	a5,a5,a6
80001d6c:	0107e663          	bltu	a5,a6,80001d78 <__moddi3+0x1e8>
80001d70:	00b7f463          	bleu	a1,a5,80001d78 <__moddi3+0x1e8>
80001d74:	010787b3          	add	a5,a5,a6
80001d78:	40b787b3          	sub	a5,a5,a1
80001d7c:	f19ff06f          	j	80001c94 <__moddi3+0x104>
	  count_leading_zeros (bm, d0);
80001d80:	01000737          	lui	a4,0x1000
80001d84:	01000313          	li	t1,16
80001d88:	f6e862e3          	bltu	a6,a4,80001cec <__moddi3+0x15c>
80001d8c:	01800313          	li	t1,24
80001d90:	f5dff06f          	j	80001cec <__moddi3+0x15c>
	      d0 = d0 << bm;
80001d94:	00681833          	sll	a6,a6,t1
	      n2 = n1 >> b;
80001d98:	01c5deb3          	srl	t4,a1,t3
	      n0 = n0 << bm;
80001d9c:	006517b3          	sll	a5,a0,t1
	      n1 = (n1 << bm) | (n0 >> b);
80001da0:	01c55e33          	srl	t3,a0,t3
	      udiv_qrnnd (q1, n1, n2, n1, d0);
80001da4:	01085513          	srli	a0,a6,0x10
80001da8:	02aed6b3          	divu	a3,t4,a0
	      n1 = (n1 << bm) | (n0 >> b);
80001dac:	006595b3          	sll	a1,a1,t1
80001db0:	00be6e33          	or	t3,t3,a1
	      udiv_qrnnd (q1, n1, n2, n1, d0);
80001db4:	01081593          	slli	a1,a6,0x10
80001db8:	0105d593          	srli	a1,a1,0x10
80001dbc:	010e5613          	srli	a2,t3,0x10
80001dc0:	02aef733          	remu	a4,t4,a0
80001dc4:	02d586b3          	mul	a3,a1,a3
80001dc8:	01071713          	slli	a4,a4,0x10
80001dcc:	00c76733          	or	a4,a4,a2
80001dd0:	00d77a63          	bleu	a3,a4,80001de4 <__moddi3+0x254>
80001dd4:	01070733          	add	a4,a4,a6
80001dd8:	01076663          	bltu	a4,a6,80001de4 <__moddi3+0x254>
80001ddc:	00d77463          	bleu	a3,a4,80001de4 <__moddi3+0x254>
80001de0:	01070733          	add	a4,a4,a6
80001de4:	40d70633          	sub	a2,a4,a3
80001de8:	02a67733          	remu	a4,a2,a0
80001dec:	010e1e13          	slli	t3,t3,0x10
80001df0:	010e5e13          	srli	t3,t3,0x10
80001df4:	02a65633          	divu	a2,a2,a0
80001df8:	01071713          	slli	a4,a4,0x10
80001dfc:	02c58633          	mul	a2,a1,a2
80001e00:	01c765b3          	or	a1,a4,t3
80001e04:	00c5fa63          	bleu	a2,a1,80001e18 <__moddi3+0x288>
80001e08:	010585b3          	add	a1,a1,a6
80001e0c:	0105e663          	bltu	a1,a6,80001e18 <__moddi3+0x288>
80001e10:	00c5f463          	bleu	a2,a1,80001e18 <__moddi3+0x288>
80001e14:	010585b3          	add	a1,a1,a6
80001e18:	40c585b3          	sub	a1,a1,a2
80001e1c:	ef1ff06f          	j	80001d0c <__moddi3+0x17c>
      if (d1 > n1)
80001e20:	e6d5eee3          	bltu	a1,a3,80001c9c <__moddi3+0x10c>
	  count_leading_zeros (bm, d1);
80001e24:	00010837          	lui	a6,0x10
80001e28:	0506fc63          	bleu	a6,a3,80001e80 <__moddi3+0x2f0>
80001e2c:	0ff00e93          	li	t4,255
80001e30:	00deb833          	sltu	a6,t4,a3
80001e34:	00381813          	slli	a6,a6,0x3
80001e38:	80003e37          	lui	t3,0x80003
80001e3c:	9c0e0e13          	addi	t3,t3,-1600 # 800029c0 <__global_pointer$+0xfffff670>
80001e40:	0106d333          	srl	t1,a3,a6
80001e44:	01c30333          	add	t1,t1,t3
80001e48:	00034e83          	lbu	t4,0(t1)
80001e4c:	02000e13          	li	t3,32
80001e50:	010e8eb3          	add	t4,t4,a6
80001e54:	41de0e33          	sub	t3,t3,t4
	  if (bm == 0)
80001e58:	020e1e63          	bnez	t3,80001e94 <__moddi3+0x304>
	      if (n1 > d1 || n0 >= d0)
80001e5c:	00b6e463          	bltu	a3,a1,80001e64 <__moddi3+0x2d4>
80001e60:	00c56a63          	bltu	a0,a2,80001e74 <__moddi3+0x2e4>
		  sub_ddmmss (n1, n0, n1, n0, d1, d0);
80001e64:	40c507b3          	sub	a5,a0,a2
80001e68:	40d586b3          	sub	a3,a1,a3
80001e6c:	00f53533          	sltu	a0,a0,a5
80001e70:	40a68733          	sub	a4,a3,a0
		  *rp = rr.ll;
80001e74:	00078513          	mv	a0,a5
80001e78:	00070593          	mv	a1,a4
80001e7c:	e21ff06f          	j	80001c9c <__moddi3+0x10c>
	  count_leading_zeros (bm, d1);
80001e80:	01000337          	lui	t1,0x1000
80001e84:	01000813          	li	a6,16
80001e88:	fa66e8e3          	bltu	a3,t1,80001e38 <__moddi3+0x2a8>
80001e8c:	01800813          	li	a6,24
80001e90:	fa9ff06f          	j	80001e38 <__moddi3+0x2a8>
	      d1 = (d1 << bm) | (d0 >> b);
80001e94:	01d65733          	srl	a4,a2,t4
80001e98:	01c696b3          	sll	a3,a3,t3
80001e9c:	00d766b3          	or	a3,a4,a3
	      n2 = n1 >> b;
80001ea0:	01d5d7b3          	srl	a5,a1,t4
	      n1 = (n1 << bm) | (n0 >> b);
80001ea4:	01d55733          	srl	a4,a0,t4
80001ea8:	01c595b3          	sll	a1,a1,t3
80001eac:	00b76733          	or	a4,a4,a1
	      udiv_qrnnd (q0, n1, n2, n1, d1);
80001eb0:	0106d593          	srli	a1,a3,0x10
80001eb4:	02b7f333          	remu	t1,a5,a1
80001eb8:	01069f13          	slli	t5,a3,0x10
80001ebc:	010f5f13          	srli	t5,t5,0x10
80001ec0:	01075813          	srli	a6,a4,0x10
	      d0 = d0 << bm;
80001ec4:	01c61633          	sll	a2,a2,t3
	      n0 = n0 << bm;
80001ec8:	01c51533          	sll	a0,a0,t3
	      udiv_qrnnd (q0, n1, n2, n1, d1);
80001ecc:	02b7d7b3          	divu	a5,a5,a1
80001ed0:	01031313          	slli	t1,t1,0x10
80001ed4:	01036833          	or	a6,t1,a6
80001ed8:	02ff0fb3          	mul	t6,t5,a5
80001edc:	00078313          	mv	t1,a5
80001ee0:	01f87e63          	bleu	t6,a6,80001efc <__moddi3+0x36c>
80001ee4:	00d80833          	add	a6,a6,a3
80001ee8:	fff78313          	addi	t1,a5,-1
80001eec:	00d86863          	bltu	a6,a3,80001efc <__moddi3+0x36c>
80001ef0:	01f87663          	bleu	t6,a6,80001efc <__moddi3+0x36c>
80001ef4:	ffe78313          	addi	t1,a5,-2
80001ef8:	00d80833          	add	a6,a6,a3
80001efc:	41f80833          	sub	a6,a6,t6
80001f00:	02b87fb3          	remu	t6,a6,a1
80001f04:	02b85833          	divu	a6,a6,a1
80001f08:	010f9f93          	slli	t6,t6,0x10
80001f0c:	030f05b3          	mul	a1,t5,a6
80001f10:	01071f13          	slli	t5,a4,0x10
80001f14:	010f5f13          	srli	t5,t5,0x10
80001f18:	01efef33          	or	t5,t6,t5
80001f1c:	00080713          	mv	a4,a6
80001f20:	00bf7e63          	bleu	a1,t5,80001f3c <__moddi3+0x3ac>
80001f24:	00df0f33          	add	t5,t5,a3
80001f28:	fff80713          	addi	a4,a6,-1 # ffff <buflen.2800+0xffbf>
80001f2c:	00df6863          	bltu	t5,a3,80001f3c <__moddi3+0x3ac>
80001f30:	00bf7663          	bleu	a1,t5,80001f3c <__moddi3+0x3ac>
80001f34:	ffe80713          	addi	a4,a6,-2
80001f38:	00df0f33          	add	t5,t5,a3
80001f3c:	01031313          	slli	t1,t1,0x10
	      umul_ppmm (m1, m0, q0, d0);
80001f40:	00010fb7          	lui	t6,0x10
	      udiv_qrnnd (q0, n1, n2, n1, d1);
80001f44:	00e36333          	or	t1,t1,a4
	      umul_ppmm (m1, m0, q0, d0);
80001f48:	ffff8793          	addi	a5,t6,-1 # ffff <buflen.2800+0xffbf>
80001f4c:	01065813          	srli	a6,a2,0x10
	      udiv_qrnnd (q0, n1, n2, n1, d1);
80001f50:	40bf0f33          	sub	t5,t5,a1
	      umul_ppmm (m1, m0, q0, d0);
80001f54:	00f375b3          	and	a1,t1,a5
80001f58:	01035313          	srli	t1,t1,0x10
80001f5c:	00f677b3          	and	a5,a2,a5
80001f60:	02f58733          	mul	a4,a1,a5
80001f64:	02f307b3          	mul	a5,t1,a5
80001f68:	030585b3          	mul	a1,a1,a6
80001f6c:	03030333          	mul	t1,t1,a6
80001f70:	00f585b3          	add	a1,a1,a5
80001f74:	01075813          	srli	a6,a4,0x10
80001f78:	00b80833          	add	a6,a6,a1
80001f7c:	00f87463          	bleu	a5,a6,80001f84 <__moddi3+0x3f4>
80001f80:	01f30333          	add	t1,t1,t6
80001f84:	000107b7          	lui	a5,0x10
80001f88:	fff78793          	addi	a5,a5,-1 # ffff <buflen.2800+0xffbf>
80001f8c:	01085593          	srli	a1,a6,0x10
80001f90:	00f87833          	and	a6,a6,a5
80001f94:	01081813          	slli	a6,a6,0x10
80001f98:	00f77733          	and	a4,a4,a5
80001f9c:	006585b3          	add	a1,a1,t1
80001fa0:	00e80733          	add	a4,a6,a4
	      if (m1 > n1 || (m1 == n1 && m0 > n0))
80001fa4:	00bf6663          	bltu	t5,a1,80001fb0 <__moddi3+0x420>
80001fa8:	00bf1e63          	bne	t5,a1,80001fc4 <__moddi3+0x434>
80001fac:	00e57c63          	bleu	a4,a0,80001fc4 <__moddi3+0x434>
		  sub_ddmmss (m1, m0, m1, m0, d1, d0);
80001fb0:	40c70633          	sub	a2,a4,a2
80001fb4:	00c73733          	sltu	a4,a4,a2
80001fb8:	40d585b3          	sub	a1,a1,a3
80001fbc:	40e585b3          	sub	a1,a1,a4
80001fc0:	00060713          	mv	a4,a2
		  sub_ddmmss (n1, n0, n1, n0, m1, m0);
80001fc4:	40e50733          	sub	a4,a0,a4
80001fc8:	00e53533          	sltu	a0,a0,a4
80001fcc:	40bf05b3          	sub	a1,t5,a1
80001fd0:	40a585b3          	sub	a1,a1,a0
		  rr.s.low = (n1 << b) | (n0 >> bm);
80001fd4:	01d597b3          	sll	a5,a1,t4
80001fd8:	01c75733          	srl	a4,a4,t3
		  *rp = rr.ll;
80001fdc:	00e7e533          	or	a0,a5,a4
80001fe0:	01c5d5b3          	srl	a1,a1,t3
80001fe4:	cb9ff06f          	j	80001c9c <__moddi3+0x10c>

80001fe8 <__udivdi3>:
#endif

#ifdef L_udivdi3
UDWtype
__udivdi3 (UDWtype n, UDWtype d)
{
80001fe8:	00058793          	mv	a5,a1
  d0 = dd.s.low;
80001fec:	00060813          	mv	a6,a2
  d1 = dd.s.high;
80001ff0:	00068893          	mv	a7,a3
  n0 = nn.s.low;
80001ff4:	00050313          	mv	t1,a0
  if (d1 == 0)
80001ff8:	28069663          	bnez	a3,80002284 <__udivdi3+0x29c>
80001ffc:	80003737          	lui	a4,0x80003
80002000:	9c070713          	addi	a4,a4,-1600 # 800029c0 <__global_pointer$+0xfffff670>
      if (d0 > n1)
80002004:	0ec5f663          	bleu	a2,a1,800020f0 <__udivdi3+0x108>
	  count_leading_zeros (bm, d0);
80002008:	000106b7          	lui	a3,0x10
8000200c:	0cd67863          	bleu	a3,a2,800020dc <__udivdi3+0xf4>
80002010:	0ff00693          	li	a3,255
80002014:	00c6b6b3          	sltu	a3,a3,a2
80002018:	00369693          	slli	a3,a3,0x3
8000201c:	00d658b3          	srl	a7,a2,a3
80002020:	01170733          	add	a4,a4,a7
80002024:	00074703          	lbu	a4,0(a4)
80002028:	00d706b3          	add	a3,a4,a3
8000202c:	02000713          	li	a4,32
80002030:	40d70733          	sub	a4,a4,a3
	  if (bm != 0)
80002034:	00070c63          	beqz	a4,8000204c <__udivdi3+0x64>
	      n1 = (n1 << bm) | (n0 >> (W_TYPE_SIZE - bm));
80002038:	00e797b3          	sll	a5,a5,a4
8000203c:	00d556b3          	srl	a3,a0,a3
	      d0 = d0 << bm;
80002040:	00e61833          	sll	a6,a2,a4
	      n1 = (n1 << bm) | (n0 >> (W_TYPE_SIZE - bm));
80002044:	00f6e5b3          	or	a1,a3,a5
	      n0 = n0 << bm;
80002048:	00e51333          	sll	t1,a0,a4
	  udiv_qrnnd (q0, n0, n1, n0, d0);
8000204c:	01085513          	srli	a0,a6,0x10
80002050:	02a5d7b3          	divu	a5,a1,a0
80002054:	01081613          	slli	a2,a6,0x10
80002058:	01065613          	srli	a2,a2,0x10
8000205c:	01035693          	srli	a3,t1,0x10
80002060:	02a5f733          	remu	a4,a1,a0
80002064:	02f605b3          	mul	a1,a2,a5
80002068:	01071713          	slli	a4,a4,0x10
8000206c:	00d766b3          	or	a3,a4,a3
80002070:	00078713          	mv	a4,a5
80002074:	00b6fe63          	bleu	a1,a3,80002090 <__udivdi3+0xa8>
80002078:	010686b3          	add	a3,a3,a6
8000207c:	fff78713          	addi	a4,a5,-1
80002080:	0106e863          	bltu	a3,a6,80002090 <__udivdi3+0xa8>
80002084:	00b6f663          	bleu	a1,a3,80002090 <__udivdi3+0xa8>
80002088:	ffe78713          	addi	a4,a5,-2
8000208c:	010686b3          	add	a3,a3,a6
80002090:	40b686b3          	sub	a3,a3,a1
80002094:	02a6f7b3          	remu	a5,a3,a0
80002098:	01031313          	slli	t1,t1,0x10
8000209c:	01035313          	srli	t1,t1,0x10
800020a0:	02a6d6b3          	divu	a3,a3,a0
800020a4:	01079793          	slli	a5,a5,0x10
800020a8:	0067e333          	or	t1,a5,t1
800020ac:	02d605b3          	mul	a1,a2,a3
800020b0:	00068513          	mv	a0,a3
800020b4:	00b37c63          	bleu	a1,t1,800020cc <__udivdi3+0xe4>
800020b8:	00680333          	add	t1,a6,t1
800020bc:	fff68513          	addi	a0,a3,-1 # ffff <buflen.2800+0xffbf>
800020c0:	01036663          	bltu	t1,a6,800020cc <__udivdi3+0xe4>
800020c4:	00b37463          	bleu	a1,t1,800020cc <__udivdi3+0xe4>
800020c8:	ffe68513          	addi	a0,a3,-2
800020cc:	01071713          	slli	a4,a4,0x10
800020d0:	00a76733          	or	a4,a4,a0
	      q1 = 0;
800020d4:	00000593          	li	a1,0
800020d8:	0e40006f          	j	800021bc <__udivdi3+0x1d4>
	  count_leading_zeros (bm, d0);
800020dc:	010008b7          	lui	a7,0x1000
800020e0:	01000693          	li	a3,16
800020e4:	f3166ce3          	bltu	a2,a7,8000201c <__udivdi3+0x34>
800020e8:	01800693          	li	a3,24
800020ec:	f31ff06f          	j	8000201c <__udivdi3+0x34>
	  if (d0 == 0)
800020f0:	00061663          	bnez	a2,800020fc <__udivdi3+0x114>
	    d0 = 1 / d0;	/* Divide intentionally by zero.  */
800020f4:	00100693          	li	a3,1
800020f8:	02c6d833          	divu	a6,a3,a2
	  count_leading_zeros (bm, d0);
800020fc:	000106b7          	lui	a3,0x10
80002100:	0cd87263          	bleu	a3,a6,800021c4 <__udivdi3+0x1dc>
80002104:	0ff00693          	li	a3,255
80002108:	0106f463          	bleu	a6,a3,80002110 <__udivdi3+0x128>
8000210c:	00800893          	li	a7,8
80002110:	011856b3          	srl	a3,a6,a7
80002114:	00d70733          	add	a4,a4,a3
80002118:	00074683          	lbu	a3,0(a4)
8000211c:	02000713          	li	a4,32
80002120:	011686b3          	add	a3,a3,a7
80002124:	40d70733          	sub	a4,a4,a3
	  if (bm == 0)
80002128:	0a071863          	bnez	a4,800021d8 <__udivdi3+0x1f0>
	      n1 -= d0;
8000212c:	410787b3          	sub	a5,a5,a6
	      q1 = 1;
80002130:	00100593          	li	a1,1
	  udiv_qrnnd (q0, n0, n1, n0, d0);
80002134:	01085613          	srli	a2,a6,0x10
80002138:	01081893          	slli	a7,a6,0x10
8000213c:	0108d893          	srli	a7,a7,0x10
80002140:	01035693          	srli	a3,t1,0x10
80002144:	02c7f733          	remu	a4,a5,a2
80002148:	02c7d7b3          	divu	a5,a5,a2
8000214c:	01071713          	slli	a4,a4,0x10
80002150:	00d766b3          	or	a3,a4,a3
80002154:	02f88533          	mul	a0,a7,a5
80002158:	00078713          	mv	a4,a5
8000215c:	00a6fe63          	bleu	a0,a3,80002178 <__udivdi3+0x190>
80002160:	010686b3          	add	a3,a3,a6
80002164:	fff78713          	addi	a4,a5,-1
80002168:	0106e863          	bltu	a3,a6,80002178 <__udivdi3+0x190>
8000216c:	00a6f663          	bleu	a0,a3,80002178 <__udivdi3+0x190>
80002170:	ffe78713          	addi	a4,a5,-2
80002174:	010686b3          	add	a3,a3,a6
80002178:	40a686b3          	sub	a3,a3,a0
8000217c:	02c6f7b3          	remu	a5,a3,a2
80002180:	01031313          	slli	t1,t1,0x10
80002184:	01035313          	srli	t1,t1,0x10
80002188:	02c6d6b3          	divu	a3,a3,a2
8000218c:	01079793          	slli	a5,a5,0x10
80002190:	0067e333          	or	t1,a5,t1
80002194:	02d888b3          	mul	a7,a7,a3
80002198:	00068513          	mv	a0,a3
8000219c:	01137c63          	bleu	a7,t1,800021b4 <__udivdi3+0x1cc>
800021a0:	00680333          	add	t1,a6,t1
800021a4:	fff68513          	addi	a0,a3,-1 # ffff <buflen.2800+0xffbf>
800021a8:	01036663          	bltu	t1,a6,800021b4 <__udivdi3+0x1cc>
800021ac:	01137463          	bleu	a7,t1,800021b4 <__udivdi3+0x1cc>
800021b0:	ffe68513          	addi	a0,a3,-2
800021b4:	01071713          	slli	a4,a4,0x10
800021b8:	00a76733          	or	a4,a4,a0
  return __udivmoddi4 (n, d, (UDWtype *) 0);
}
800021bc:	00070513          	mv	a0,a4
800021c0:	00008067          	ret
	  count_leading_zeros (bm, d0);
800021c4:	010006b7          	lui	a3,0x1000
800021c8:	01000893          	li	a7,16
800021cc:	f4d862e3          	bltu	a6,a3,80002110 <__udivdi3+0x128>
800021d0:	01800893          	li	a7,24
800021d4:	f3dff06f          	j	80002110 <__udivdi3+0x128>
	      d0 = d0 << bm;
800021d8:	00e81833          	sll	a6,a6,a4
	      n2 = n1 >> b;
800021dc:	00d7d5b3          	srl	a1,a5,a3
	      n0 = n0 << bm;
800021e0:	00e51333          	sll	t1,a0,a4
	      n1 = (n1 << bm) | (n0 >> b);
800021e4:	00d556b3          	srl	a3,a0,a3
	      udiv_qrnnd (q1, n1, n2, n1, d0);
800021e8:	01085513          	srli	a0,a6,0x10
	      n1 = (n1 << bm) | (n0 >> b);
800021ec:	00e797b3          	sll	a5,a5,a4
	      udiv_qrnnd (q1, n1, n2, n1, d0);
800021f0:	02a5f733          	remu	a4,a1,a0
	      n1 = (n1 << bm) | (n0 >> b);
800021f4:	00f6e8b3          	or	a7,a3,a5
	      udiv_qrnnd (q1, n1, n2, n1, d0);
800021f8:	01081793          	slli	a5,a6,0x10
800021fc:	0107d793          	srli	a5,a5,0x10
80002200:	0108d613          	srli	a2,a7,0x10
80002204:	02a5d5b3          	divu	a1,a1,a0
80002208:	01071713          	slli	a4,a4,0x10
8000220c:	00c76733          	or	a4,a4,a2
80002210:	02b786b3          	mul	a3,a5,a1
80002214:	00058613          	mv	a2,a1
80002218:	00d77e63          	bleu	a3,a4,80002234 <__udivdi3+0x24c>
8000221c:	01070733          	add	a4,a4,a6
80002220:	fff58613          	addi	a2,a1,-1
80002224:	01076863          	bltu	a4,a6,80002234 <__udivdi3+0x24c>
80002228:	00d77663          	bleu	a3,a4,80002234 <__udivdi3+0x24c>
8000222c:	ffe58613          	addi	a2,a1,-2
80002230:	01070733          	add	a4,a4,a6
80002234:	40d706b3          	sub	a3,a4,a3
80002238:	02a6f733          	remu	a4,a3,a0
8000223c:	01089893          	slli	a7,a7,0x10
80002240:	0108d893          	srli	a7,a7,0x10
80002244:	02a6d6b3          	divu	a3,a3,a0
80002248:	01071713          	slli	a4,a4,0x10
8000224c:	02d785b3          	mul	a1,a5,a3
80002250:	011767b3          	or	a5,a4,a7
80002254:	00068713          	mv	a4,a3
80002258:	00b7fe63          	bleu	a1,a5,80002274 <__udivdi3+0x28c>
8000225c:	010787b3          	add	a5,a5,a6
80002260:	fff68713          	addi	a4,a3,-1 # ffffff <buflen.2800+0xffffbf>
80002264:	0107e863          	bltu	a5,a6,80002274 <__udivdi3+0x28c>
80002268:	00b7f663          	bleu	a1,a5,80002274 <__udivdi3+0x28c>
8000226c:	ffe68713          	addi	a4,a3,-2
80002270:	010787b3          	add	a5,a5,a6
80002274:	40b787b3          	sub	a5,a5,a1
80002278:	01061593          	slli	a1,a2,0x10
8000227c:	00e5e5b3          	or	a1,a1,a4
80002280:	eb5ff06f          	j	80002134 <__udivdi3+0x14c>
      if (d1 > n1)
80002284:	18d5e663          	bltu	a1,a3,80002410 <__udivdi3+0x428>
	  count_leading_zeros (bm, d1);
80002288:	00010737          	lui	a4,0x10
8000228c:	04e6f463          	bleu	a4,a3,800022d4 <__udivdi3+0x2ec>
80002290:	0ff00813          	li	a6,255
80002294:	00d83733          	sltu	a4,a6,a3
80002298:	00371713          	slli	a4,a4,0x3
8000229c:	80003837          	lui	a6,0x80003
800022a0:	9c080813          	addi	a6,a6,-1600 # 800029c0 <__global_pointer$+0xfffff670>
800022a4:	00e6d5b3          	srl	a1,a3,a4
800022a8:	010585b3          	add	a1,a1,a6
800022ac:	0005c803          	lbu	a6,0(a1)
800022b0:	02000593          	li	a1,32
800022b4:	00e80833          	add	a6,a6,a4
800022b8:	410585b3          	sub	a1,a1,a6
	  if (bm == 0)
800022bc:	02059663          	bnez	a1,800022e8 <__udivdi3+0x300>
		  q0 = 1;
800022c0:	00100713          	li	a4,1
	      if (n1 > d1 || n0 >= d0)
800022c4:	eef6ece3          	bltu	a3,a5,800021bc <__udivdi3+0x1d4>
800022c8:	00c53533          	sltu	a0,a0,a2
800022cc:	00154713          	xori	a4,a0,1
800022d0:	eedff06f          	j	800021bc <__udivdi3+0x1d4>
	  count_leading_zeros (bm, d1);
800022d4:	010005b7          	lui	a1,0x1000
800022d8:	01000713          	li	a4,16
800022dc:	fcb6e0e3          	bltu	a3,a1,8000229c <__udivdi3+0x2b4>
800022e0:	01800713          	li	a4,24
800022e4:	fb9ff06f          	j	8000229c <__udivdi3+0x2b4>
	      d1 = (d1 << bm) | (d0 >> b);
800022e8:	01065733          	srl	a4,a2,a6
800022ec:	00b696b3          	sll	a3,a3,a1
800022f0:	00d766b3          	or	a3,a4,a3
	      udiv_qrnnd (q0, n1, n2, n1, d1);
800022f4:	0106de93          	srli	t4,a3,0x10
	      n2 = n1 >> b;
800022f8:	0107d733          	srl	a4,a5,a6
	      udiv_qrnnd (q0, n1, n2, n1, d1);
800022fc:	03d778b3          	remu	a7,a4,t4
	      n1 = (n1 << bm) | (n0 >> b);
80002300:	00b797b3          	sll	a5,a5,a1
80002304:	01055833          	srl	a6,a0,a6
80002308:	00f86333          	or	t1,a6,a5
	      udiv_qrnnd (q0, n1, n2, n1, d1);
8000230c:	01069793          	slli	a5,a3,0x10
80002310:	0107d793          	srli	a5,a5,0x10
80002314:	01035813          	srli	a6,t1,0x10
	      d0 = d0 << bm;
80002318:	00b61633          	sll	a2,a2,a1
	      udiv_qrnnd (q0, n1, n2, n1, d1);
8000231c:	03d75733          	divu	a4,a4,t4
80002320:	01089893          	slli	a7,a7,0x10
80002324:	0108e833          	or	a6,a7,a6
80002328:	02e78f33          	mul	t5,a5,a4
8000232c:	00070e13          	mv	t3,a4
80002330:	01e87e63          	bleu	t5,a6,8000234c <__udivdi3+0x364>
80002334:	00d80833          	add	a6,a6,a3
80002338:	fff70e13          	addi	t3,a4,-1 # ffff <buflen.2800+0xffbf>
8000233c:	00d86863          	bltu	a6,a3,8000234c <__udivdi3+0x364>
80002340:	01e87663          	bleu	t5,a6,8000234c <__udivdi3+0x364>
80002344:	ffe70e13          	addi	t3,a4,-2
80002348:	00d80833          	add	a6,a6,a3
8000234c:	41e80833          	sub	a6,a6,t5
80002350:	03d878b3          	remu	a7,a6,t4
80002354:	03d85833          	divu	a6,a6,t4
80002358:	01089893          	slli	a7,a7,0x10
8000235c:	03078eb3          	mul	t4,a5,a6
80002360:	01031793          	slli	a5,t1,0x10
80002364:	0107d793          	srli	a5,a5,0x10
80002368:	00f8e7b3          	or	a5,a7,a5
8000236c:	00080713          	mv	a4,a6
80002370:	01d7fe63          	bleu	t4,a5,8000238c <__udivdi3+0x3a4>
80002374:	00d787b3          	add	a5,a5,a3
80002378:	fff80713          	addi	a4,a6,-1
8000237c:	00d7e863          	bltu	a5,a3,8000238c <__udivdi3+0x3a4>
80002380:	01d7f663          	bleu	t4,a5,8000238c <__udivdi3+0x3a4>
80002384:	ffe80713          	addi	a4,a6,-2
80002388:	00d787b3          	add	a5,a5,a3
8000238c:	010e1e13          	slli	t3,t3,0x10
80002390:	41d787b3          	sub	a5,a5,t4
	      umul_ppmm (m1, m0, q0, d0);
80002394:	00010eb7          	lui	t4,0x10
	      udiv_qrnnd (q0, n1, n2, n1, d1);
80002398:	00ee6733          	or	a4,t3,a4
	      umul_ppmm (m1, m0, q0, d0);
8000239c:	fffe8813          	addi	a6,t4,-1 # ffff <buflen.2800+0xffbf>
800023a0:	01077333          	and	t1,a4,a6
800023a4:	01075893          	srli	a7,a4,0x10
800023a8:	01067833          	and	a6,a2,a6
800023ac:	01065613          	srli	a2,a2,0x10
800023b0:	03030e33          	mul	t3,t1,a6
800023b4:	03088833          	mul	a6,a7,a6
800023b8:	010e5693          	srli	a3,t3,0x10
800023bc:	02c30333          	mul	t1,t1,a2
800023c0:	01030333          	add	t1,t1,a6
800023c4:	006686b3          	add	a3,a3,t1
800023c8:	02c888b3          	mul	a7,a7,a2
800023cc:	0106f463          	bleu	a6,a3,800023d4 <__udivdi3+0x3ec>
800023d0:	01d888b3          	add	a7,a7,t4
800023d4:	0106d613          	srli	a2,a3,0x10
800023d8:	011608b3          	add	a7,a2,a7
	      if (m1 > n1 || (m1 == n1 && m0 > n0))
800023dc:	0317e663          	bltu	a5,a7,80002408 <__udivdi3+0x420>
800023e0:	cf179ae3          	bne	a5,a7,800020d4 <__udivdi3+0xec>
	      umul_ppmm (m1, m0, q0, d0);
800023e4:	000107b7          	lui	a5,0x10
800023e8:	fff78793          	addi	a5,a5,-1 # ffff <buflen.2800+0xffbf>
800023ec:	00f6f6b3          	and	a3,a3,a5
800023f0:	01069693          	slli	a3,a3,0x10
800023f4:	00fe7e33          	and	t3,t3,a5
	      n0 = n0 << bm;
800023f8:	00b51533          	sll	a0,a0,a1
	      umul_ppmm (m1, m0, q0, d0);
800023fc:	01c686b3          	add	a3,a3,t3
	      q1 = 0;
80002400:	00000593          	li	a1,0
	      if (m1 > n1 || (m1 == n1 && m0 > n0))
80002404:	dad57ce3          	bleu	a3,a0,800021bc <__udivdi3+0x1d4>
		  q0--;
80002408:	fff70713          	addi	a4,a4,-1
8000240c:	cc9ff06f          	j	800020d4 <__udivdi3+0xec>
	  q1 = 0;
80002410:	00000593          	li	a1,0
	  q0 = 0;
80002414:	00000713          	li	a4,0
80002418:	da5ff06f          	j	800021bc <__udivdi3+0x1d4>

8000241c <__umoddi3>:
  d0 = dd.s.low;
8000241c:	00060893          	mv	a7,a2
  d1 = dd.s.high;
80002420:	00068713          	mv	a4,a3
  n0 = nn.s.low;
80002424:	00050793          	mv	a5,a0
  n1 = nn.s.high;
80002428:	00058813          	mv	a6,a1
  if (d1 == 0)
8000242c:	22069c63          	bnez	a3,80002664 <__umoddi3+0x248>
80002430:	800036b7          	lui	a3,0x80003
80002434:	9c068693          	addi	a3,a3,-1600 # 800029c0 <__global_pointer$+0xfffff670>
      if (d0 > n1)
80002438:	0cc5fc63          	bleu	a2,a1,80002510 <__umoddi3+0xf4>
	  count_leading_zeros (bm, d0);
8000243c:	00010337          	lui	t1,0x10
80002440:	0a667e63          	bleu	t1,a2,800024fc <__umoddi3+0xe0>
80002444:	0ff00313          	li	t1,255
80002448:	00c37463          	bleu	a2,t1,80002450 <__umoddi3+0x34>
8000244c:	00800713          	li	a4,8
80002450:	00e65333          	srl	t1,a2,a4
80002454:	006686b3          	add	a3,a3,t1
80002458:	0006ce03          	lbu	t3,0(a3)
8000245c:	02000313          	li	t1,32
80002460:	00ee0e33          	add	t3,t3,a4
80002464:	41c30333          	sub	t1,t1,t3
	  if (bm != 0)
80002468:	00030c63          	beqz	t1,80002480 <__umoddi3+0x64>
	      n1 = (n1 << bm) | (n0 >> (W_TYPE_SIZE - bm));
8000246c:	006595b3          	sll	a1,a1,t1
80002470:	01c55e33          	srl	t3,a0,t3
	      d0 = d0 << bm;
80002474:	006618b3          	sll	a7,a2,t1
	      n1 = (n1 << bm) | (n0 >> (W_TYPE_SIZE - bm));
80002478:	00be6833          	or	a6,t3,a1
	      n0 = n0 << bm;
8000247c:	006517b3          	sll	a5,a0,t1
	  udiv_qrnnd (q0, n0, n1, n0, d0);
80002480:	0108d613          	srli	a2,a7,0x10
80002484:	02c87733          	remu	a4,a6,a2
80002488:	01089513          	slli	a0,a7,0x10
8000248c:	01055513          	srli	a0,a0,0x10
80002490:	0107d693          	srli	a3,a5,0x10
80002494:	02c85833          	divu	a6,a6,a2
80002498:	01071713          	slli	a4,a4,0x10
8000249c:	00d766b3          	or	a3,a4,a3
800024a0:	03050833          	mul	a6,a0,a6
800024a4:	0106fa63          	bleu	a6,a3,800024b8 <__umoddi3+0x9c>
800024a8:	011686b3          	add	a3,a3,a7
800024ac:	0116e663          	bltu	a3,a7,800024b8 <__umoddi3+0x9c>
800024b0:	0106f463          	bleu	a6,a3,800024b8 <__umoddi3+0x9c>
800024b4:	011686b3          	add	a3,a3,a7
800024b8:	410686b3          	sub	a3,a3,a6
800024bc:	02c6f733          	remu	a4,a3,a2
800024c0:	01079793          	slli	a5,a5,0x10
800024c4:	0107d793          	srli	a5,a5,0x10
800024c8:	02c6d6b3          	divu	a3,a3,a2
800024cc:	02d506b3          	mul	a3,a0,a3
800024d0:	01071513          	slli	a0,a4,0x10
800024d4:	00f567b3          	or	a5,a0,a5
800024d8:	00d7fa63          	bleu	a3,a5,800024ec <__umoddi3+0xd0>
800024dc:	011787b3          	add	a5,a5,a7
800024e0:	0117e663          	bltu	a5,a7,800024ec <__umoddi3+0xd0>
800024e4:	00d7f463          	bleu	a3,a5,800024ec <__umoddi3+0xd0>
800024e8:	011787b3          	add	a5,a5,a7
800024ec:	40d787b3          	sub	a5,a5,a3
	  rr.s.low = n0 >> bm;
800024f0:	0067d533          	srl	a0,a5,t1
	  *rp = rr.ll;
800024f4:	00000593          	li	a1,0
}
800024f8:	00008067          	ret
	  count_leading_zeros (bm, d0);
800024fc:	01000337          	lui	t1,0x1000
80002500:	01000713          	li	a4,16
80002504:	f46666e3          	bltu	a2,t1,80002450 <__umoddi3+0x34>
80002508:	01800713          	li	a4,24
8000250c:	f45ff06f          	j	80002450 <__umoddi3+0x34>
	  if (d0 == 0)
80002510:	00061663          	bnez	a2,8000251c <__umoddi3+0x100>
	    d0 = 1 / d0;	/* Divide intentionally by zero.  */
80002514:	00100613          	li	a2,1
80002518:	031658b3          	divu	a7,a2,a7
	  count_leading_zeros (bm, d0);
8000251c:	00010637          	lui	a2,0x10
80002520:	0ac8f263          	bleu	a2,a7,800025c4 <__umoddi3+0x1a8>
80002524:	0ff00613          	li	a2,255
80002528:	01167463          	bleu	a7,a2,80002530 <__umoddi3+0x114>
8000252c:	00800713          	li	a4,8
80002530:	00e8d633          	srl	a2,a7,a4
80002534:	00c686b3          	add	a3,a3,a2
80002538:	0006ce03          	lbu	t3,0(a3)
8000253c:	02000313          	li	t1,32
80002540:	00ee0e33          	add	t3,t3,a4
80002544:	41c30333          	sub	t1,t1,t3
	  if (bm == 0)
80002548:	08031863          	bnez	t1,800025d8 <__umoddi3+0x1bc>
	      n1 -= d0;
8000254c:	411585b3          	sub	a1,a1,a7
	  udiv_qrnnd (q0, n0, n1, n0, d0);
80002550:	0108d713          	srli	a4,a7,0x10
80002554:	01089513          	slli	a0,a7,0x10
80002558:	01055513          	srli	a0,a0,0x10
8000255c:	0107d613          	srli	a2,a5,0x10
80002560:	02e5f6b3          	remu	a3,a1,a4
80002564:	02e5d5b3          	divu	a1,a1,a4
80002568:	01069693          	slli	a3,a3,0x10
8000256c:	00c6e6b3          	or	a3,a3,a2
80002570:	02b505b3          	mul	a1,a0,a1
80002574:	00b6fa63          	bleu	a1,a3,80002588 <__umoddi3+0x16c>
80002578:	011686b3          	add	a3,a3,a7
8000257c:	0116e663          	bltu	a3,a7,80002588 <__umoddi3+0x16c>
80002580:	00b6f463          	bleu	a1,a3,80002588 <__umoddi3+0x16c>
80002584:	011686b3          	add	a3,a3,a7
80002588:	40b685b3          	sub	a1,a3,a1
8000258c:	02e5f6b3          	remu	a3,a1,a4
80002590:	01079793          	slli	a5,a5,0x10
80002594:	0107d793          	srli	a5,a5,0x10
80002598:	02e5d5b3          	divu	a1,a1,a4
8000259c:	02b505b3          	mul	a1,a0,a1
800025a0:	01069513          	slli	a0,a3,0x10
800025a4:	00f567b3          	or	a5,a0,a5
800025a8:	00b7fa63          	bleu	a1,a5,800025bc <__umoddi3+0x1a0>
800025ac:	011787b3          	add	a5,a5,a7
800025b0:	0117e663          	bltu	a5,a7,800025bc <__umoddi3+0x1a0>
800025b4:	00b7f463          	bleu	a1,a5,800025bc <__umoddi3+0x1a0>
800025b8:	011787b3          	add	a5,a5,a7
800025bc:	40b787b3          	sub	a5,a5,a1
800025c0:	f31ff06f          	j	800024f0 <__umoddi3+0xd4>
	  count_leading_zeros (bm, d0);
800025c4:	01000637          	lui	a2,0x1000
800025c8:	01000713          	li	a4,16
800025cc:	f6c8e2e3          	bltu	a7,a2,80002530 <__umoddi3+0x114>
800025d0:	01800713          	li	a4,24
800025d4:	f5dff06f          	j	80002530 <__umoddi3+0x114>
	      d0 = d0 << bm;
800025d8:	006898b3          	sll	a7,a7,t1
	      n2 = n1 >> b;
800025dc:	01c5d733          	srl	a4,a1,t3
	      n0 = n0 << bm;
800025e0:	006517b3          	sll	a5,a0,t1
	      n1 = (n1 << bm) | (n0 >> b);
800025e4:	01c55e33          	srl	t3,a0,t3
	      udiv_qrnnd (q1, n1, n2, n1, d0);
800025e8:	0108d513          	srli	a0,a7,0x10
800025ec:	02a776b3          	remu	a3,a4,a0
	      n1 = (n1 << bm) | (n0 >> b);
800025f0:	006595b3          	sll	a1,a1,t1
800025f4:	00be6e33          	or	t3,t3,a1
	      udiv_qrnnd (q1, n1, n2, n1, d0);
800025f8:	01089593          	slli	a1,a7,0x10
800025fc:	0105d593          	srli	a1,a1,0x10
80002600:	010e5613          	srli	a2,t3,0x10
80002604:	02a75733          	divu	a4,a4,a0
80002608:	01069693          	slli	a3,a3,0x10
8000260c:	00c6e6b3          	or	a3,a3,a2
80002610:	02e58733          	mul	a4,a1,a4
80002614:	00e6fa63          	bleu	a4,a3,80002628 <__umoddi3+0x20c>
80002618:	011686b3          	add	a3,a3,a7
8000261c:	0116e663          	bltu	a3,a7,80002628 <__umoddi3+0x20c>
80002620:	00e6f463          	bleu	a4,a3,80002628 <__umoddi3+0x20c>
80002624:	011686b3          	add	a3,a3,a7
80002628:	40e68633          	sub	a2,a3,a4
8000262c:	02a676b3          	remu	a3,a2,a0
80002630:	010e1e13          	slli	t3,t3,0x10
80002634:	010e5e13          	srli	t3,t3,0x10
80002638:	02a65633          	divu	a2,a2,a0
8000263c:	01069693          	slli	a3,a3,0x10
80002640:	02c58633          	mul	a2,a1,a2
80002644:	01c6e5b3          	or	a1,a3,t3
80002648:	00c5fa63          	bleu	a2,a1,8000265c <__umoddi3+0x240>
8000264c:	011585b3          	add	a1,a1,a7
80002650:	0115e663          	bltu	a1,a7,8000265c <__umoddi3+0x240>
80002654:	00c5f463          	bleu	a2,a1,8000265c <__umoddi3+0x240>
80002658:	011585b3          	add	a1,a1,a7
8000265c:	40c585b3          	sub	a1,a1,a2
80002660:	ef1ff06f          	j	80002550 <__umoddi3+0x134>
      if (d1 > n1)
80002664:	e8d5eae3          	bltu	a1,a3,800024f8 <__umoddi3+0xdc>
	  count_leading_zeros (bm, d1);
80002668:	00010737          	lui	a4,0x10
8000266c:	04e6fc63          	bleu	a4,a3,800026c4 <__umoddi3+0x2a8>
80002670:	0ff00e93          	li	t4,255
80002674:	00deb733          	sltu	a4,t4,a3
80002678:	00371713          	slli	a4,a4,0x3
8000267c:	80003337          	lui	t1,0x80003
80002680:	00e6d8b3          	srl	a7,a3,a4
80002684:	9c030313          	addi	t1,t1,-1600 # 800029c0 <__global_pointer$+0xfffff670>
80002688:	006888b3          	add	a7,a7,t1
8000268c:	0008ce83          	lbu	t4,0(a7) # 1000000 <buflen.2800+0xffffc0>
80002690:	02000e13          	li	t3,32
80002694:	00ee8eb3          	add	t4,t4,a4
80002698:	41de0e33          	sub	t3,t3,t4
	  if (bm == 0)
8000269c:	020e1e63          	bnez	t3,800026d8 <__umoddi3+0x2bc>
	      if (n1 > d1 || n0 >= d0)
800026a0:	00b6e463          	bltu	a3,a1,800026a8 <__umoddi3+0x28c>
800026a4:	00c56a63          	bltu	a0,a2,800026b8 <__umoddi3+0x29c>
		  sub_ddmmss (n1, n0, n1, n0, d1, d0);
800026a8:	40c507b3          	sub	a5,a0,a2
800026ac:	40d585b3          	sub	a1,a1,a3
800026b0:	00f53533          	sltu	a0,a0,a5
800026b4:	40a58833          	sub	a6,a1,a0
		  *rp = rr.ll;
800026b8:	00078513          	mv	a0,a5
800026bc:	00080593          	mv	a1,a6
800026c0:	e39ff06f          	j	800024f8 <__umoddi3+0xdc>
	  count_leading_zeros (bm, d1);
800026c4:	010008b7          	lui	a7,0x1000
800026c8:	01000713          	li	a4,16
800026cc:	fb16e8e3          	bltu	a3,a7,8000267c <__umoddi3+0x260>
800026d0:	01800713          	li	a4,24
800026d4:	fa9ff06f          	j	8000267c <__umoddi3+0x260>
	      d1 = (d1 << bm) | (d0 >> b);
800026d8:	01d65733          	srl	a4,a2,t4
800026dc:	01c696b3          	sll	a3,a3,t3
800026e0:	00d766b3          	or	a3,a4,a3
	      n1 = (n1 << bm) | (n0 >> b);
800026e4:	01d557b3          	srl	a5,a0,t4
	      n2 = n1 >> b;
800026e8:	01d5d733          	srl	a4,a1,t4
	      n1 = (n1 << bm) | (n0 >> b);
800026ec:	01c595b3          	sll	a1,a1,t3
800026f0:	00b7e7b3          	or	a5,a5,a1
	      udiv_qrnnd (q0, n1, n2, n1, d1);
800026f4:	0106d593          	srli	a1,a3,0x10
800026f8:	02b77333          	remu	t1,a4,a1
800026fc:	01069f13          	slli	t5,a3,0x10
80002700:	010f5f13          	srli	t5,t5,0x10
80002704:	0107d893          	srli	a7,a5,0x10
	      d0 = d0 << bm;
80002708:	01c61633          	sll	a2,a2,t3
	      n0 = n0 << bm;
8000270c:	01c51533          	sll	a0,a0,t3
	      udiv_qrnnd (q0, n1, n2, n1, d1);
80002710:	02b75733          	divu	a4,a4,a1
80002714:	01031313          	slli	t1,t1,0x10
80002718:	011368b3          	or	a7,t1,a7
8000271c:	02ef0833          	mul	a6,t5,a4
80002720:	00070313          	mv	t1,a4
80002724:	0108fe63          	bleu	a6,a7,80002740 <__umoddi3+0x324>
80002728:	00d888b3          	add	a7,a7,a3
8000272c:	fff70313          	addi	t1,a4,-1 # ffff <buflen.2800+0xffbf>
80002730:	00d8e863          	bltu	a7,a3,80002740 <__umoddi3+0x324>
80002734:	0108f663          	bleu	a6,a7,80002740 <__umoddi3+0x324>
80002738:	ffe70313          	addi	t1,a4,-2
8000273c:	00d888b3          	add	a7,a7,a3
80002740:	410888b3          	sub	a7,a7,a6
80002744:	02b8ffb3          	remu	t6,a7,a1
80002748:	02b8d8b3          	divu	a7,a7,a1
8000274c:	010f9f93          	slli	t6,t6,0x10
80002750:	031f05b3          	mul	a1,t5,a7
80002754:	01079f13          	slli	t5,a5,0x10
80002758:	010f5f13          	srli	t5,t5,0x10
8000275c:	01efef33          	or	t5,t6,t5
80002760:	00088713          	mv	a4,a7
80002764:	00bf7e63          	bleu	a1,t5,80002780 <__umoddi3+0x364>
80002768:	00df0f33          	add	t5,t5,a3
8000276c:	fff88713          	addi	a4,a7,-1 # ffffff <buflen.2800+0xffffbf>
80002770:	00df6863          	bltu	t5,a3,80002780 <__umoddi3+0x364>
80002774:	00bf7663          	bleu	a1,t5,80002780 <__umoddi3+0x364>
80002778:	ffe88713          	addi	a4,a7,-2
8000277c:	00df0f33          	add	t5,t5,a3
80002780:	01031313          	slli	t1,t1,0x10
	      umul_ppmm (m1, m0, q0, d0);
80002784:	000108b7          	lui	a7,0x10
	      udiv_qrnnd (q0, n1, n2, n1, d1);
80002788:	00e36333          	or	t1,t1,a4
	      umul_ppmm (m1, m0, q0, d0);
8000278c:	fff88793          	addi	a5,a7,-1 # ffff <buflen.2800+0xffbf>
80002790:	01065813          	srli	a6,a2,0x10
	      udiv_qrnnd (q0, n1, n2, n1, d1);
80002794:	40bf0f33          	sub	t5,t5,a1
	      umul_ppmm (m1, m0, q0, d0);
80002798:	00f375b3          	and	a1,t1,a5
8000279c:	01035313          	srli	t1,t1,0x10
800027a0:	00f677b3          	and	a5,a2,a5
800027a4:	02f58733          	mul	a4,a1,a5
800027a8:	02f307b3          	mul	a5,t1,a5
800027ac:	030585b3          	mul	a1,a1,a6
800027b0:	03030333          	mul	t1,t1,a6
800027b4:	00f585b3          	add	a1,a1,a5
800027b8:	01075813          	srli	a6,a4,0x10
800027bc:	00b80833          	add	a6,a6,a1
800027c0:	00f87463          	bleu	a5,a6,800027c8 <__umoddi3+0x3ac>
800027c4:	01130333          	add	t1,t1,a7
800027c8:	000107b7          	lui	a5,0x10
800027cc:	fff78793          	addi	a5,a5,-1 # ffff <buflen.2800+0xffbf>
800027d0:	01085593          	srli	a1,a6,0x10
800027d4:	00f87833          	and	a6,a6,a5
800027d8:	01081813          	slli	a6,a6,0x10
800027dc:	00f77733          	and	a4,a4,a5
800027e0:	006585b3          	add	a1,a1,t1
800027e4:	00e80733          	add	a4,a6,a4
	      if (m1 > n1 || (m1 == n1 && m0 > n0))
800027e8:	00bf6663          	bltu	t5,a1,800027f4 <__umoddi3+0x3d8>
800027ec:	00bf1e63          	bne	t5,a1,80002808 <__umoddi3+0x3ec>
800027f0:	00e57c63          	bleu	a4,a0,80002808 <__umoddi3+0x3ec>
		  sub_ddmmss (m1, m0, m1, m0, d1, d0);
800027f4:	40c70633          	sub	a2,a4,a2
800027f8:	00c73733          	sltu	a4,a4,a2
800027fc:	40d585b3          	sub	a1,a1,a3
80002800:	40e585b3          	sub	a1,a1,a4
80002804:	00060713          	mv	a4,a2
		  sub_ddmmss (n1, n0, n1, n0, m1, m0);
80002808:	40e50733          	sub	a4,a0,a4
8000280c:	00e53533          	sltu	a0,a0,a4
80002810:	40bf05b3          	sub	a1,t5,a1
80002814:	40a585b3          	sub	a1,a1,a0
		  rr.s.low = (n1 << b) | (n0 >> bm);
80002818:	01d597b3          	sll	a5,a1,t4
8000281c:	01c75733          	srl	a4,a4,t3
		  *rp = rr.ll;
80002820:	00e7e533          	or	a0,a5,a4
80002824:	01c5d5b3          	srl	a1,a1,t3
  return w;
80002828:	cd1ff06f          	j	800024f8 <__umoddi3+0xdc>

Disassembly of section .text.startup:

8000282c <main>:
8000282c:	f0010113          	addi	sp,sp,-256
80002830:	00010593          	mv	a1,sp
80002834:	0005a00b          	0x5a00b
80002838:	00000513          	li	a0,0
8000283c:	10010113          	addi	sp,sp,256
80002840:	00008067          	ret
80002844:	ff010113          	addi	sp,sp,-16
80002848:	00000517          	auipc	a0,0x0
8000284c:	29450513          	addi	a0,a0,660 # 80002adc <__clz_tab+0x11c>
80002850:	00112623          	sw	ra,12(sp)
80002854:	eedfe0ef          	jal	ra,80001740 <printstr>
80002858:	00c12083          	lw	ra,12(sp)
8000285c:	fff00513          	li	a0,-1
80002860:	01010113          	addi	sp,sp,16
80002864:	00008067          	ret
