
baremetal.elf：     文件格式 elf32-littleriscv


Disassembly of section .text:

80000000 <_start>:
80000000:	00000093          	li	ra,0
80000004:	00000113          	li	sp,0
80000008:	00000193          	li	gp,0
8000000c:	00000213          	li	tp,0
80000010:	00000293          	li	t0,0
80000014:	00000313          	li	t1,0
80000018:	00000393          	li	t2,0
8000001c:	00000413          	li	s0,0
80000020:	00000493          	li	s1,0
80000024:	00000513          	li	a0,0
80000028:	00000593          	li	a1,0
8000002c:	00000613          	li	a2,0
80000030:	00000693          	li	a3,0
80000034:	00000713          	li	a4,0
80000038:	00000793          	li	a5,0
8000003c:	00000813          	li	a6,0
80000040:	00000893          	li	a7,0
80000044:	00000913          	li	s2,0
80000048:	00000993          	li	s3,0
8000004c:	00000a13          	li	s4,0
80000050:	00000a93          	li	s5,0
80000054:	00000b13          	li	s6,0
80000058:	00000b93          	li	s7,0
8000005c:	00000c13          	li	s8,0
80000060:	00000c93          	li	s9,0
80000064:	00000d13          	li	s10,0
80000068:	00000d93          	li	s11,0
8000006c:	00000e13          	li	t3,0
80000070:	00000e93          	li	t4,0
80000074:	00000f13          	li	t5,0
80000078:	00000f93          	li	t6,0
8000007c:	0001e2b7          	lui	t0,0x1e
80000080:	3002a073          	csrs	mstatus,t0
80000084:	0f000117          	auipc	sp,0xf000
80000088:	f7c10113          	addi	sp,sp,-132 # 8f000000 <_stack>
8000008c:	038000ef          	jal	ra,800000c4 <main>
80000090:	80000437          	lui	s0,0x80000
80000094:	f1402573          	csrr	a0,mhartid
80000098:	00040067          	jr	s0

8000009c <a>:
8000009c:	fe010113          	addi	sp,sp,-32
800000a0:	00812e23          	sw	s0,28(sp)
800000a4:	02010413          	addi	s0,sp,32
800000a8:	00a00793          	li	a5,10
800000ac:	fef42623          	sw	a5,-20(s0) # 7fffffec <uart_base_ptr+0xf00fffec>
800000b0:	00000013          	nop
800000b4:	00078513          	mv	a0,a5
800000b8:	01c12403          	lw	s0,28(sp)
800000bc:	02010113          	addi	sp,sp,32
800000c0:	00008067          	ret

800000c4 <main>:
800000c4:	ff010113          	addi	sp,sp,-16
800000c8:	00112623          	sw	ra,12(sp)
800000cc:	00812423          	sw	s0,8(sp)
800000d0:	01010413          	addi	s0,sp,16
800000d4:	474000ef          	jal	ra,80000548 <uart_init>
800000d8:	00000593          	li	a1,0
800000dc:	800017b7          	lui	a5,0x80001
800000e0:	00078513          	mv	a0,a5
800000e4:	564000ef          	jal	ra,80000648 <printf>
800000e8:	424000ef          	jal	ra,8000050c <loadDMABenchmark>
800000ec:	00000593          	li	a1,0
800000f0:	800017b7          	lui	a5,0x80001
800000f4:	01078513          	addi	a0,a5,16 # 80001010 <uart_base_ptr+0xf0101010>
800000f8:	550000ef          	jal	ra,80000648 <printf>
800000fc:	00000793          	li	a5,0
80000100:	00078513          	mv	a0,a5
80000104:	00c12083          	lw	ra,12(sp)
80000108:	00812403          	lw	s0,8(sp)
8000010c:	01010113          	addi	sp,sp,16
80000110:	00008067          	ret

80000114 <convTest>:
80000114:	fd010113          	addi	sp,sp,-48
80000118:	02112623          	sw	ra,44(sp)
8000011c:	02812423          	sw	s0,40(sp)
80000120:	03010413          	addi	s0,sp,48
80000124:	00000593          	li	a1,0
80000128:	800017b7          	lui	a5,0x80001
8000012c:	02078513          	addi	a0,a5,32 # 80001020 <uart_base_ptr+0xf0101020>
80000130:	518000ef          	jal	ra,80000648 <printf>
80000134:	fe042623          	sw	zero,-20(s0)
80000138:	0540006f          	j	8000018c <convTest+0x78>
8000013c:	fe042423          	sw	zero,-24(s0)
80000140:	0340006f          	j	80000174 <convTest+0x60>
80000144:	fec42783          	lw	a5,-20(s0)
80000148:	00579713          	slli	a4,a5,0x5
8000014c:	fe842783          	lw	a5,-24(s0)
80000150:	00f70733          	add	a4,a4,a5
80000154:	800017b7          	lui	a5,0x80001
80000158:	0e478793          	addi	a5,a5,228 # 800010e4 <uart_base_ptr+0xf01010e4>
8000015c:	00f707b3          	add	a5,a4,a5
80000160:	00100713          	li	a4,1
80000164:	00e78023          	sb	a4,0(a5)
80000168:	fe842783          	lw	a5,-24(s0)
8000016c:	00178793          	addi	a5,a5,1
80000170:	fef42423          	sw	a5,-24(s0)
80000174:	fe842703          	lw	a4,-24(s0)
80000178:	01f00793          	li	a5,31
8000017c:	fce7d4e3          	ble	a4,a5,80000144 <convTest+0x30>
80000180:	fec42783          	lw	a5,-20(s0)
80000184:	00178793          	addi	a5,a5,1
80000188:	fef42623          	sw	a5,-20(s0)
8000018c:	fec42703          	lw	a4,-20(s0)
80000190:	01f00793          	li	a5,31
80000194:	fae7d4e3          	ble	a4,a5,8000013c <convTest+0x28>
80000198:	fe042223          	sw	zero,-28(s0)
8000019c:	05c0006f          	j	800001f8 <convTest+0xe4>
800001a0:	fe042023          	sw	zero,-32(s0)
800001a4:	03c0006f          	j	800001e0 <convTest+0xcc>
800001a8:	fe442703          	lw	a4,-28(s0)
800001ac:	00070793          	mv	a5,a4
800001b0:	00179793          	slli	a5,a5,0x1
800001b4:	00e78733          	add	a4,a5,a4
800001b8:	fe042783          	lw	a5,-32(s0)
800001bc:	00f70733          	add	a4,a4,a5
800001c0:	800017b7          	lui	a5,0x80001
800001c4:	6bc78793          	addi	a5,a5,1724 # 800016bc <uart_base_ptr+0xf01016bc>
800001c8:	00f707b3          	add	a5,a4,a5
800001cc:	00100713          	li	a4,1
800001d0:	00e78023          	sb	a4,0(a5)
800001d4:	fe042783          	lw	a5,-32(s0)
800001d8:	00178793          	addi	a5,a5,1
800001dc:	fef42023          	sw	a5,-32(s0)
800001e0:	fe042703          	lw	a4,-32(s0)
800001e4:	00200793          	li	a5,2
800001e8:	fce7d0e3          	ble	a4,a5,800001a8 <convTest+0x94>
800001ec:	fe442783          	lw	a5,-28(s0)
800001f0:	00178793          	addi	a5,a5,1
800001f4:	fef42223          	sw	a5,-28(s0)
800001f8:	fe442703          	lw	a4,-28(s0)
800001fc:	00200793          	li	a5,2
80000200:	fae7d0e3          	ble	a4,a5,800001a0 <convTest+0x8c>
80000204:	00000593          	li	a1,0
80000208:	800017b7          	lui	a5,0x80001
8000020c:	03c78513          	addi	a0,a5,60 # 8000103c <uart_base_ptr+0xf010103c>
80000210:	438000ef          	jal	ra,80000648 <printf>
80000214:	0ff0000f          	fence
80000218:	800017b7          	lui	a5,0x80001
8000021c:	0e478793          	addi	a5,a5,228 # 800010e4 <uart_base_ptr+0xf01010e4>
80000220:	00078593          	mv	a1,a5
80000224:	0205a00b          	0x205a00b
80000228:	0ff0000f          	fence
8000022c:	0600000b          	0x600000b
80000230:	0ff0000f          	fence
80000234:	800017b7          	lui	a5,0x80001
80000238:	0e478793          	addi	a5,a5,228 # 800010e4 <uart_base_ptr+0xf01010e4>
8000023c:	02078793          	addi	a5,a5,32
80000240:	00078593          	mv	a1,a5
80000244:	0205a00b          	0x205a00b
80000248:	0ff0000f          	fence
8000024c:	0600000b          	0x600000b
80000250:	0ff0000f          	fence
80000254:	800017b7          	lui	a5,0x80001
80000258:	0e478793          	addi	a5,a5,228 # 800010e4 <uart_base_ptr+0xf01010e4>
8000025c:	04078793          	addi	a5,a5,64
80000260:	00078593          	mv	a1,a5
80000264:	0205a00b          	0x205a00b
80000268:	0ff0000f          	fence
8000026c:	0600000b          	0x600000b
80000270:	fc042e23          	sw	zero,-36(s0)
80000274:	0340006f          	j	800002a8 <convTest+0x194>
80000278:	fdc42783          	lw	a5,-36(s0)
8000027c:	00078593          	mv	a1,a5
80000280:	800017b7          	lui	a5,0x80001
80000284:	6bc78713          	addi	a4,a5,1724 # 800016bc <uart_base_ptr+0xf01016bc>
80000288:	fdc42783          	lw	a5,-36(s0)
8000028c:	00f707b3          	add	a5,a4,a5
80000290:	00078783          	lb	a5,0(a5)
80000294:	00078613          	mv	a2,a5
80000298:	04c5b00b          	0x4c5b00b
8000029c:	fdc42783          	lw	a5,-36(s0)
800002a0:	00178793          	addi	a5,a5,1
800002a4:	fcf42e23          	sw	a5,-36(s0)
800002a8:	fdc42703          	lw	a4,-36(s0)
800002ac:	00800793          	li	a5,8
800002b0:	fce7d4e3          	ble	a4,a5,80000278 <convTest+0x164>
800002b4:	00000593          	li	a1,0
800002b8:	800017b7          	lui	a5,0x80001
800002bc:	05c78513          	addi	a0,a5,92 # 8000105c <uart_base_ptr+0xf010105c>
800002c0:	388000ef          	jal	ra,80000648 <printf>
800002c4:	00000593          	li	a1,0
800002c8:	800017b7          	lui	a5,0x80001
800002cc:	07878513          	addi	a0,a5,120 # 80001078 <uart_base_ptr+0xf0101078>
800002d0:	378000ef          	jal	ra,80000648 <printf>
800002d4:	0800000b          	0x800000b
800002d8:	00000593          	li	a1,0
800002dc:	800017b7          	lui	a5,0x80001
800002e0:	09078513          	addi	a0,a5,144 # 80001090 <uart_base_ptr+0xf0101090>
800002e4:	364000ef          	jal	ra,80000648 <printf>
800002e8:	800017b7          	lui	a5,0x80001
800002ec:	5d078793          	addi	a5,a5,1488 # 800015d0 <uart_base_ptr+0xf01015d0>
800002f0:	00078593          	mv	a1,a5
800002f4:	0c05a00b          	0xc05a00b
800002f8:	fc042c23          	sw	zero,-40(s0)
800002fc:	04c0006f          	j	80000348 <convTest+0x234>
80000300:	fd842783          	lw	a5,-40(s0)
80000304:	00078593          	mv	a1,a5
80000308:	800017b7          	lui	a5,0x80001
8000030c:	0a478513          	addi	a0,a5,164 # 800010a4 <uart_base_ptr+0xf01010a4>
80000310:	338000ef          	jal	ra,80000648 <printf>
80000314:	800017b7          	lui	a5,0x80001
80000318:	fd842703          	lw	a4,-40(s0)
8000031c:	00271713          	slli	a4,a4,0x2
80000320:	5d078793          	addi	a5,a5,1488 # 800015d0 <uart_base_ptr+0xf01015d0>
80000324:	00f707b3          	add	a5,a4,a5
80000328:	0007a783          	lw	a5,0(a5)
8000032c:	00078593          	mv	a1,a5
80000330:	800017b7          	lui	a5,0x80001
80000334:	0bc78513          	addi	a0,a5,188 # 800010bc <uart_base_ptr+0xf01010bc>
80000338:	310000ef          	jal	ra,80000648 <printf>
8000033c:	fd842783          	lw	a5,-40(s0)
80000340:	00178793          	addi	a5,a5,1
80000344:	fcf42c23          	sw	a5,-40(s0)
80000348:	fd842703          	lw	a4,-40(s0)
8000034c:	01d00793          	li	a5,29
80000350:	fae7d8e3          	ble	a4,a5,80000300 <convTest+0x1ec>
80000354:	00000013          	nop
80000358:	02c12083          	lw	ra,44(sp)
8000035c:	02812403          	lw	s0,40(sp)
80000360:	03010113          	addi	sp,sp,48
80000364:	00008067          	ret

80000368 <loadFeatureIntoAccel>:
80000368:	fd010113          	addi	sp,sp,-48
8000036c:	02812623          	sw	s0,44(sp)
80000370:	03010413          	addi	s0,sp,48
80000374:	fca42e23          	sw	a0,-36(s0)
80000378:	00058793          	mv	a5,a1
8000037c:	fcf41d23          	sh	a5,-38(s0)
80000380:	fda45783          	lhu	a5,-38(s0)
80000384:	0027d793          	srli	a5,a5,0x2
80000388:	01079793          	slli	a5,a5,0x10
8000038c:	0107d793          	srli	a5,a5,0x10
80000390:	fef406a3          	sb	a5,-19(s0)
80000394:	fe0407a3          	sb	zero,-17(s0)
80000398:	0e00006f          	j	80000478 <loadFeatureIntoAccel+0x110>
8000039c:	fef44783          	lbu	a5,-17(s0)
800003a0:	00279793          	slli	a5,a5,0x2
800003a4:	fef42023          	sw	a5,-32(s0)
800003a8:	fe042783          	lw	a5,-32(s0)
800003ac:	00378793          	addi	a5,a5,3
800003b0:	01879713          	slli	a4,a5,0x18
800003b4:	fe042783          	lw	a5,-32(s0)
800003b8:	00278793          	addi	a5,a5,2
800003bc:	01079793          	slli	a5,a5,0x10
800003c0:	00f76733          	or	a4,a4,a5
800003c4:	fe042783          	lw	a5,-32(s0)
800003c8:	00178793          	addi	a5,a5,1
800003cc:	00879793          	slli	a5,a5,0x8
800003d0:	00f767b3          	or	a5,a4,a5
800003d4:	fe042703          	lw	a4,-32(s0)
800003d8:	00f767b3          	or	a5,a4,a5
800003dc:	fef42423          	sw	a5,-24(s0)
800003e0:	fe042783          	lw	a5,-32(s0)
800003e4:	00378793          	addi	a5,a5,3
800003e8:	fdc42703          	lw	a4,-36(s0)
800003ec:	00f707b3          	add	a5,a4,a5
800003f0:	00078783          	lb	a5,0(a5)
800003f4:	01879713          	slli	a4,a5,0x18
800003f8:	fe042783          	lw	a5,-32(s0)
800003fc:	00278793          	addi	a5,a5,2
80000400:	fdc42683          	lw	a3,-36(s0)
80000404:	00f687b3          	add	a5,a3,a5
80000408:	00078783          	lb	a5,0(a5)
8000040c:	01079693          	slli	a3,a5,0x10
80000410:	00ff07b7          	lui	a5,0xff0
80000414:	00f6f7b3          	and	a5,a3,a5
80000418:	00f76733          	or	a4,a4,a5
8000041c:	fe042783          	lw	a5,-32(s0)
80000420:	00178793          	addi	a5,a5,1 # ff0001 <_start-0x7f00ffff>
80000424:	fdc42683          	lw	a3,-36(s0)
80000428:	00f687b3          	add	a5,a3,a5
8000042c:	00078783          	lb	a5,0(a5)
80000430:	00879693          	slli	a3,a5,0x8
80000434:	000107b7          	lui	a5,0x10
80000438:	fff78793          	addi	a5,a5,-1 # ffff <_start-0x7fff0001>
8000043c:	00f6f7b3          	and	a5,a3,a5
80000440:	00f76733          	or	a4,a4,a5
80000444:	fdc42683          	lw	a3,-36(s0)
80000448:	fe042783          	lw	a5,-32(s0)
8000044c:	00f687b3          	add	a5,a3,a5
80000450:	00078783          	lb	a5,0(a5)
80000454:	0ff7f793          	andi	a5,a5,255
80000458:	00f767b3          	or	a5,a4,a5
8000045c:	fef42223          	sw	a5,-28(s0)
80000460:	fe842583          	lw	a1,-24(s0)
80000464:	fe442603          	lw	a2,-28(s0)
80000468:	00c5b00b          	0xc5b00b
8000046c:	fef44783          	lbu	a5,-17(s0)
80000470:	00178793          	addi	a5,a5,1
80000474:	fef407a3          	sb	a5,-17(s0)
80000478:	fef44703          	lbu	a4,-17(s0)
8000047c:	fed44783          	lbu	a5,-19(s0)
80000480:	f0f76ee3          	bltu	a4,a5,8000039c <loadFeatureIntoAccel+0x34>
80000484:	fda45783          	lhu	a5,-38(s0)
80000488:	0ff7f793          	andi	a5,a5,255
8000048c:	0037f793          	andi	a5,a5,3
80000490:	fef40623          	sb	a5,-20(s0)
80000494:	fec44783          	lbu	a5,-20(s0)
80000498:	06078263          	beqz	a5,800004fc <loadFeatureIntoAccel+0x194>
8000049c:	fe042423          	sw	zero,-24(s0)
800004a0:	fe042223          	sw	zero,-28(s0)
800004a4:	fe040723          	sb	zero,-18(s0)
800004a8:	0480006f          	j	800004f0 <loadFeatureIntoAccel+0x188>
800004ac:	fed44783          	lbu	a5,-19(s0)
800004b0:	00279713          	slli	a4,a5,0x2
800004b4:	fee44783          	lbu	a5,-18(s0)
800004b8:	00f707b3          	add	a5,a4,a5
800004bc:	fef42423          	sw	a5,-24(s0)
800004c0:	fed44783          	lbu	a5,-19(s0)
800004c4:	00279713          	slli	a4,a5,0x2
800004c8:	fee44783          	lbu	a5,-18(s0)
800004cc:	00f707b3          	add	a5,a4,a5
800004d0:	00078713          	mv	a4,a5
800004d4:	fdc42783          	lw	a5,-36(s0)
800004d8:	00e787b3          	add	a5,a5,a4
800004dc:	00078783          	lb	a5,0(a5)
800004e0:	fef42223          	sw	a5,-28(s0)
800004e4:	fee44783          	lbu	a5,-18(s0)
800004e8:	00178793          	addi	a5,a5,1
800004ec:	fef40723          	sb	a5,-18(s0)
800004f0:	fee44703          	lbu	a4,-18(s0)
800004f4:	fec44783          	lbu	a5,-20(s0)
800004f8:	faf76ae3          	bltu	a4,a5,800004ac <loadFeatureIntoAccel+0x144>
800004fc:	00000013          	nop
80000500:	02c12403          	lw	s0,44(sp)
80000504:	03010113          	addi	sp,sp,48
80000508:	00008067          	ret

8000050c <loadDMABenchmark>:
8000050c:	ff010113          	addi	sp,sp,-16
80000510:	00112623          	sw	ra,12(sp)
80000514:	00812423          	sw	s0,8(sp)
80000518:	01010413          	addi	s0,sp,16
8000051c:	800017b7          	lui	a5,0x80001
80000520:	0e478793          	addi	a5,a5,228 # 800010e4 <uart_base_ptr+0xf01010e4>
80000524:	00078593          	mv	a1,a5
80000528:	800017b7          	lui	a5,0x80001
8000052c:	0c878513          	addi	a0,a5,200 # 800010c8 <uart_base_ptr+0xf01010c8>
80000530:	118000ef          	jal	ra,80000648 <printf>
80000534:	00000013          	nop
80000538:	00c12083          	lw	ra,12(sp)
8000053c:	00812403          	lw	s0,8(sp)
80000540:	01010113          	addi	sp,sp,16
80000544:	00008067          	ret

80000548 <uart_init>:
80000548:	ff010113          	addi	sp,sp,-16
8000054c:	00812623          	sw	s0,12(sp)
80000550:	01010413          	addi	s0,sp,16
80000554:	8ff007b7          	lui	a5,0x8ff00
80000558:	0007a783          	lw	a5,0(a5) # 8ff00000 <uart_base_ptr+0x0>
8000055c:	00c78793          	addi	a5,a5,12
80000560:	08000713          	li	a4,128
80000564:	00e7a023          	sw	a4,0(a5)
80000568:	8ff007b7          	lui	a5,0x8ff00
8000056c:	0007a783          	lw	a5,0(a5) # 8ff00000 <uart_base_ptr+0x0>
80000570:	01000713          	li	a4,16
80000574:	00e7a023          	sw	a4,0(a5)
80000578:	8ff007b7          	lui	a5,0x8ff00
8000057c:	0007a783          	lw	a5,0(a5) # 8ff00000 <uart_base_ptr+0x0>
80000580:	00478793          	addi	a5,a5,4
80000584:	0007a023          	sw	zero,0(a5)
80000588:	8ff007b7          	lui	a5,0x8ff00
8000058c:	0007a783          	lw	a5,0(a5) # 8ff00000 <uart_base_ptr+0x0>
80000590:	00c78793          	addi	a5,a5,12
80000594:	00b00713          	li	a4,11
80000598:	00e7a023          	sw	a4,0(a5)
8000059c:	8ff007b7          	lui	a5,0x8ff00
800005a0:	0007a783          	lw	a5,0(a5) # 8ff00000 <uart_base_ptr+0x0>
800005a4:	00478793          	addi	a5,a5,4
800005a8:	00100713          	li	a4,1
800005ac:	00e7a023          	sw	a4,0(a5)
800005b0:	00000013          	nop
800005b4:	00c12403          	lw	s0,12(sp)
800005b8:	01010113          	addi	sp,sp,16
800005bc:	00008067          	ret

800005c0 <uart_send>:
800005c0:	fe010113          	addi	sp,sp,-32
800005c4:	00812e23          	sw	s0,28(sp)
800005c8:	02010413          	addi	s0,sp,32
800005cc:	00050793          	mv	a5,a0
800005d0:	fef407a3          	sb	a5,-17(s0)
800005d4:	00000013          	nop
800005d8:	8ff007b7          	lui	a5,0x8ff00
800005dc:	0007a783          	lw	a5,0(a5) # 8ff00000 <uart_base_ptr+0x0>
800005e0:	01478793          	addi	a5,a5,20
800005e4:	0007a783          	lw	a5,0(a5)
800005e8:	0407f793          	andi	a5,a5,64
800005ec:	fe0786e3          	beqz	a5,800005d8 <uart_send+0x18>
800005f0:	8ff007b7          	lui	a5,0x8ff00
800005f4:	0007a783          	lw	a5,0(a5) # 8ff00000 <uart_base_ptr+0x0>
800005f8:	fef44703          	lbu	a4,-17(s0)
800005fc:	00e7a023          	sw	a4,0(a5)
80000600:	00000013          	nop
80000604:	01c12403          	lw	s0,28(sp)
80000608:	02010113          	addi	sp,sp,32
8000060c:	00008067          	ret

80000610 <putch>:
80000610:	fe010113          	addi	sp,sp,-32
80000614:	00112e23          	sw	ra,28(sp)
80000618:	00812c23          	sw	s0,24(sp)
8000061c:	02010413          	addi	s0,sp,32
80000620:	00050793          	mv	a5,a0
80000624:	fef407a3          	sb	a5,-17(s0)
80000628:	fef44783          	lbu	a5,-17(s0)
8000062c:	00078513          	mv	a0,a5
80000630:	f91ff0ef          	jal	ra,800005c0 <uart_send>
80000634:	00000013          	nop
80000638:	01c12083          	lw	ra,28(sp)
8000063c:	01812403          	lw	s0,24(sp)
80000640:	02010113          	addi	sp,sp,32
80000644:	00008067          	ret

80000648 <printf>:
80000648:	fd010113          	addi	sp,sp,-48
8000064c:	02112623          	sw	ra,44(sp)
80000650:	02812423          	sw	s0,40(sp)
80000654:	03010413          	addi	s0,sp,48
80000658:	fca42e23          	sw	a0,-36(s0)
8000065c:	fcb42c23          	sw	a1,-40(s0)
80000660:	fe042623          	sw	zero,-20(s0)
80000664:	0f40006f          	j	80000758 <printf+0x110>
80000668:	fec42783          	lw	a5,-20(s0)
8000066c:	fdc42703          	lw	a4,-36(s0)
80000670:	00f707b3          	add	a5,a4,a5
80000674:	0007c703          	lbu	a4,0(a5)
80000678:	02500793          	li	a5,37
8000067c:	02f70663          	beq	a4,a5,800006a8 <printf+0x60>
80000680:	fec42783          	lw	a5,-20(s0)
80000684:	00178713          	addi	a4,a5,1
80000688:	fee42623          	sw	a4,-20(s0)
8000068c:	00078713          	mv	a4,a5
80000690:	fdc42783          	lw	a5,-36(s0)
80000694:	00e787b3          	add	a5,a5,a4
80000698:	0007c783          	lbu	a5,0(a5)
8000069c:	00078513          	mv	a0,a5
800006a0:	f71ff0ef          	jal	ra,80000610 <putch>
800006a4:	0b40006f          	j	80000758 <printf+0x110>
800006a8:	fec42783          	lw	a5,-20(s0)
800006ac:	00178793          	addi	a5,a5,1
800006b0:	fef42623          	sw	a5,-20(s0)
800006b4:	fec42783          	lw	a5,-20(s0)
800006b8:	fdc42703          	lw	a4,-36(s0)
800006bc:	00f707b3          	add	a5,a4,a5
800006c0:	0007c783          	lbu	a5,0(a5)
800006c4:	06400713          	li	a4,100
800006c8:	00e78863          	beq	a5,a4,800006d8 <printf+0x90>
800006cc:	06800713          	li	a4,104
800006d0:	02e78c63          	beq	a5,a4,80000708 <printf+0xc0>
800006d4:	0740006f          	j	80000748 <printf+0x100>
800006d8:	fd842783          	lw	a5,-40(s0)
800006dc:	00079863          	bnez	a5,800006ec <printf+0xa4>
800006e0:	03000513          	li	a0,48
800006e4:	f2dff0ef          	jal	ra,80000610 <putch>
800006e8:	0100006f          	j	800006f8 <printf+0xb0>
800006ec:	00a00593          	li	a1,10
800006f0:	fd842503          	lw	a0,-40(s0)
800006f4:	08c000ef          	jal	ra,80000780 <printNum>
800006f8:	fec42783          	lw	a5,-20(s0)
800006fc:	00178793          	addi	a5,a5,1
80000700:	fef42623          	sw	a5,-20(s0)
80000704:	0540006f          	j	80000758 <printf+0x110>
80000708:	03000513          	li	a0,48
8000070c:	f05ff0ef          	jal	ra,80000610 <putch>
80000710:	07800513          	li	a0,120
80000714:	efdff0ef          	jal	ra,80000610 <putch>
80000718:	fd842783          	lw	a5,-40(s0)
8000071c:	00079863          	bnez	a5,8000072c <printf+0xe4>
80000720:	03000513          	li	a0,48
80000724:	eedff0ef          	jal	ra,80000610 <putch>
80000728:	0100006f          	j	80000738 <printf+0xf0>
8000072c:	01000593          	li	a1,16
80000730:	fd842503          	lw	a0,-40(s0)
80000734:	04c000ef          	jal	ra,80000780 <printNum>
80000738:	fec42783          	lw	a5,-20(s0)
8000073c:	00178793          	addi	a5,a5,1
80000740:	fef42623          	sw	a5,-20(s0)
80000744:	0140006f          	j	80000758 <printf+0x110>
80000748:	fec42783          	lw	a5,-20(s0)
8000074c:	00178793          	addi	a5,a5,1
80000750:	fef42623          	sw	a5,-20(s0)
80000754:	00000013          	nop
80000758:	fec42783          	lw	a5,-20(s0)
8000075c:	fdc42703          	lw	a4,-36(s0)
80000760:	00f707b3          	add	a5,a4,a5
80000764:	0007c783          	lbu	a5,0(a5)
80000768:	f00790e3          	bnez	a5,80000668 <printf+0x20>
8000076c:	00000013          	nop
80000770:	02c12083          	lw	ra,44(sp)
80000774:	02812403          	lw	s0,40(sp)
80000778:	03010113          	addi	sp,sp,48
8000077c:	00008067          	ret

80000780 <printNum>:
80000780:	fe010113          	addi	sp,sp,-32
80000784:	00112e23          	sw	ra,28(sp)
80000788:	00812c23          	sw	s0,24(sp)
8000078c:	02010413          	addi	s0,sp,32
80000790:	fea42623          	sw	a0,-20(s0)
80000794:	feb42423          	sw	a1,-24(s0)
80000798:	fec42783          	lw	a5,-20(s0)
8000079c:	04078263          	beqz	a5,800007e0 <printNum+0x60>
800007a0:	fe842783          	lw	a5,-24(s0)
800007a4:	fec42703          	lw	a4,-20(s0)
800007a8:	02f757b3          	divu	a5,a4,a5
800007ac:	fe842583          	lw	a1,-24(s0)
800007b0:	00078513          	mv	a0,a5
800007b4:	fcdff0ef          	jal	ra,80000780 <printNum>
800007b8:	fe842783          	lw	a5,-24(s0)
800007bc:	fec42703          	lw	a4,-20(s0)
800007c0:	02f77733          	remu	a4,a4,a5
800007c4:	800017b7          	lui	a5,0x80001
800007c8:	0cc78793          	addi	a5,a5,204 # 800010cc <uart_base_ptr+0xf01010cc>
800007cc:	00f707b3          	add	a5,a4,a5
800007d0:	0007c783          	lbu	a5,0(a5)
800007d4:	00078513          	mv	a0,a5
800007d8:	e39ff0ef          	jal	ra,80000610 <putch>
800007dc:	0080006f          	j	800007e4 <printNum+0x64>
800007e0:	00000013          	nop
800007e4:	01c12083          	lw	ra,28(sp)
800007e8:	01812403          	lw	s0,24(sp)
800007ec:	02010113          	addi	sp,sp,32
800007f0:	00008067          	ret
